Archive member included to satisfy reference by file (symbol)

/home/andy/code/dbc/test/compilers/gcc-arm-none-eabi-7-2018-q2-update/bin/../lib/gcc/arm-none-eabi/7.3.1/../../../../arm-none-eabi/lib/thumb/v7e-m/fpv5/softfp/libstdc++_nano.a(new_handler.o)
                              BUILD/GIGA/GCC_ARM-CUSTOM/mbed-os/rtos/source/Thread.o (symbol from plugin) (std::nothrow)
/home/andy/code/dbc/test/compilers/gcc-arm-none-eabi-7-2018-q2-update/bin/../lib/gcc/arm-none-eabi/7.3.1/../../../../arm-none-eabi/lib/thumb/v7e-m/fpv5/softfp/libc_nano.a(lib_a-errno.o)
                              BUILD/GIGA/GCC_ARM-CUSTOM/mbed-os/platform/source/mbed_retarget.o (symbol from plugin) (__errno)
/home/andy/code/dbc/test/compilers/gcc-arm-none-eabi-7-2018-q2-update/bin/../lib/gcc/arm-none-eabi/7.3.1/../../../../arm-none-eabi/lib/thumb/v7e-m/fpv5/softfp/libc_nano.a(lib_a-fclose.o)
                              BUILD/GIGA/GCC_ARM-CUSTOM/app/fileblockdevice/FileBlockDevice.o (symbol from plugin) (fclose)
/home/andy/code/dbc/test/compilers/gcc-arm-none-eabi-7-2018-q2-update/bin/../lib/gcc/arm-none-eabi/7.3.1/../../../../arm-none-eabi/lib/thumb/v7e-m/fpv5/softfp/libc_nano.a(lib_a-fflush.o)
                              /home/andy/code/dbc/test/compilers/gcc-arm-none-eabi-7-2018-q2-update/bin/../lib/gcc/arm-none-eabi/7.3.1/../../../../arm-none-eabi/lib/thumb/v7e-m/fpv5/softfp/libc_nano.a(lib_a-fclose.o) (__sflush_r)
/home/andy/code/dbc/test/compilers/gcc-arm-none-eabi-7-2018-q2-update/bin/../lib/gcc/arm-none-eabi/7.3.1/../../../../arm-none-eabi/lib/thumb/v7e-m/fpv5/softfp/libc_nano.a(lib_a-fgetc.o)
                              BUILD/GIGA/GCC_ARM-CUSTOM/mbed-os/platform/source/Stream.o (symbol from plugin) (fgetc)
/home/andy/code/dbc/test/compilers/gcc-arm-none-eabi-7-2018-q2-update/bin/../lib/gcc/arm-none-eabi/7.3.1/../../../../arm-none-eabi/lib/thumb/v7e-m/fpv5/softfp/libc_nano.a(lib_a-fgets.o)
                              BUILD/GIGA/GCC_ARM-CUSTOM/mbed-os/connectivity/mbedtls/source/bignum.o (symbol from plugin) (fgets)
/home/andy/code/dbc/test/compilers/gcc-arm-none-eabi-7-2018-q2-update/bin/../lib/gcc/arm-none-eabi/7.3.1/../../../../arm-none-eabi/lib/thumb/v7e-m/fpv5/softfp/libc_nano.a(lib_a-findfp.o)
                              /home/andy/code/dbc/test/compilers/gcc-arm-none-eabi-7-2018-q2-update/bin/../lib/gcc/arm-none-eabi/7.3.1/../../../../arm-none-eabi/lib/thumb/v7e-m/fpv5/softfp/libc_nano.a(lib_a-fclose.o) (__sinit)
/home/andy/code/dbc/test/compilers/gcc-arm-none-eabi-7-2018-q2-update/bin/../lib/gcc/arm-none-eabi/7.3.1/../../../../arm-none-eabi/lib/thumb/v7e-m/fpv5/softfp/libc_nano.a(lib_a-fopen.o)
                              BUILD/GIGA/GCC_ARM-CUSTOM/app/fileblockdevice/FileBlockDevice.o (symbol from plugin) (fopen)
/home/andy/code/dbc/test/compilers/gcc-arm-none-eabi-7-2018-q2-update/bin/../lib/gcc/arm-none-eabi/7.3.1/../../../../arm-none-eabi/lib/thumb/v7e-m/fpv5/softfp/libc_nano.a(lib_a-fread.o)
                              BUILD/GIGA/GCC_ARM-CUSTOM/app/fileblockdevice/FileBlockDevice.o (symbol from plugin) (fread)
/home/andy/code/dbc/test/compilers/gcc-arm-none-eabi-7-2018-q2-update/bin/../lib/gcc/arm-none-eabi/7.3.1/../../../../arm-none-eabi/lib/thumb/v7e-m/fpv5/softfp/libc_nano.a(lib_a-fseek.o)
                              /home/andy/code/dbc/test/compilers/gcc-arm-none-eabi-7-2018-q2-update/bin/../lib/gcc/arm-none-eabi/7.3.1/../../../../arm-none-eabi/lib/thumb/v7e-m/fpv5/softfp/libc_nano.a(lib_a-fopen.o) (_fseek_r)
/home/andy/code/dbc/test/compilers/gcc-arm-none-eabi-7-2018-q2-update/bin/../lib/gcc/arm-none-eabi/7.3.1/../../../../arm-none-eabi/lib/thumb/v7e-m/fpv5/softfp/libc_nano.a(lib_a-fseeko.o)
                              /home/andy/code/dbc/test/compilers/gcc-arm-none-eabi-7-2018-q2-update/bin/../lib/gcc/arm-none-eabi/7.3.1/../../../../arm-none-eabi/lib/thumb/v7e-m/fpv5/softfp/libc_nano.a(lib_a-fseek.o) (_fseeko_r)
/home/andy/code/dbc/test/compilers/gcc-arm-none-eabi-7-2018-q2-update/bin/../lib/gcc/arm-none-eabi/7.3.1/../../../../arm-none-eabi/lib/thumb/v7e-m/fpv5/softfp/libc_nano.a(lib_a-ftell.o)
                              BUILD/GIGA/GCC_ARM-CUSTOM/app/fileblockdevice/FileBlockDevice.o (symbol from plugin) (ftell)
/home/andy/code/dbc/test/compilers/gcc-arm-none-eabi-7-2018-q2-update/bin/../lib/gcc/arm-none-eabi/7.3.1/../../../../arm-none-eabi/lib/thumb/v7e-m/fpv5/softfp/libc_nano.a(lib_a-ftello.o)
                              /home/andy/code/dbc/test/compilers/gcc-arm-none-eabi-7-2018-q2-update/bin/../lib/gcc/arm-none-eabi/7.3.1/../../../../arm-none-eabi/lib/thumb/v7e-m/fpv5/softfp/libc_nano.a(lib_a-ftell.o) (_ftello_r)
/home/andy/code/dbc/test/compilers/gcc-arm-none-eabi-7-2018-q2-update/bin/../lib/gcc/arm-none-eabi/7.3.1/../../../../arm-none-eabi/lib/thumb/v7e-m/fpv5/softfp/libc_nano.a(lib_a-fwalk.o)
                              /home/andy/code/dbc/test/compilers/gcc-arm-none-eabi-7-2018-q2-update/bin/../lib/gcc/arm-none-eabi/7.3.1/../../../../arm-none-eabi/lib/thumb/v7e-m/fpv5/softfp/libc_nano.a(lib_a-findfp.o) (_fwalk)
/home/andy/code/dbc/test/compilers/gcc-arm-none-eabi-7-2018-q2-update/bin/../lib/gcc/arm-none-eabi/7.3.1/../../../../arm-none-eabi/lib/thumb/v7e-m/fpv5/softfp/libc_nano.a(lib_a-impure.o)
                              /home/andy/code/dbc/test/compilers/gcc-arm-none-eabi-7-2018-q2-update/bin/../lib/gcc/arm-none-eabi/7.3.1/../../../../arm-none-eabi/lib/thumb/v7e-m/fpv5/softfp/libc_nano.a(lib_a-fflush.o) (_global_impure_ptr)
/home/andy/code/dbc/test/compilers/gcc-arm-none-eabi-7-2018-q2-update/bin/../lib/gcc/arm-none-eabi/7.3.1/../../../../arm-none-eabi/lib/thumb/v7e-m/fpv5/softfp/libc_nano.a(lib_a-init.o)
                              /home/andy/code/dbc/test/compilers/gcc-arm-none-eabi-7-2018-q2-update/bin/../lib/gcc/arm-none-eabi/7.3.1/../../../../arm-none-eabi/lib/thumb/v7e-m/fpv5/softfp/crt0.o (__libc_init_array)
/home/andy/code/dbc/test/compilers/gcc-arm-none-eabi-7-2018-q2-update/bin/../lib/gcc/arm-none-eabi/7.3.1/../../../../arm-none-eabi/lib/thumb/v7e-m/fpv5/softfp/libc_nano.a(lib_a-lcltime.o)
                              BUILD/GIGA/GCC_ARM-CUSTOM/mbed-os/storage/filesystem/fat/source/FATFileSystem.o (symbol from plugin) (localtime)
/home/andy/code/dbc/test/compilers/gcc-arm-none-eabi-7-2018-q2-update/bin/../lib/gcc/arm-none-eabi/7.3.1/../../../../arm-none-eabi/lib/thumb/v7e-m/fpv5/softfp/libc_nano.a(lib_a-lcltime_r.o)
                              /home/andy/code/dbc/test/compilers/gcc-arm-none-eabi-7-2018-q2-update/bin/../lib/gcc/arm-none-eabi/7.3.1/../../../../arm-none-eabi/lib/thumb/v7e-m/fpv5/softfp/libc_nano.a(lib_a-lcltime.o) (localtime_r)
/home/andy/code/dbc/test/compilers/gcc-arm-none-eabi-7-2018-q2-update/bin/../lib/gcc/arm-none-eabi/7.3.1/../../../../arm-none-eabi/lib/thumb/v7e-m/fpv5/softfp/libc_nano.a(lib_a-makebuf.o)
                              /home/andy/code/dbc/test/compilers/gcc-arm-none-eabi-7-2018-q2-update/bin/../lib/gcc/arm-none-eabi/7.3.1/../../../../arm-none-eabi/lib/thumb/v7e-m/fpv5/softfp/libc_nano.a(lib_a-fseeko.o) (__smakebuf_r)
/home/andy/code/dbc/test/compilers/gcc-arm-none-eabi-7-2018-q2-update/bin/../lib/gcc/arm-none-eabi/7.3.1/../../../../arm-none-eabi/lib/thumb/v7e-m/fpv5/softfp/libc_nano.a(lib_a-malloc.o)
                              /home/andy/code/dbc/test/compilers/gcc-arm-none-eabi-7-2018-q2-update/bin/../lib/gcc/arm-none-eabi/7.3.1/../../../../arm-none-eabi/lib/thumb/v7e-m/fpv5/softfp/libc_nano.a(lib_a-lcltime.o) (malloc)
/home/andy/code/dbc/test/compilers/gcc-arm-none-eabi-7-2018-q2-update/bin/../lib/gcc/arm-none-eabi/7.3.1/../../../../arm-none-eabi/lib/thumb/v7e-m/fpv5/softfp/libc_nano.a(lib_a-memchr.o)
                              /home/andy/code/dbc/test/compilers/gcc-arm-none-eabi-7-2018-q2-update/bin/../lib/gcc/arm-none-eabi/7.3.1/../../../../arm-none-eabi/lib/thumb/v7e-m/fpv5/softfp/libc_nano.a(lib_a-fgets.o) (memchr)
/home/andy/code/dbc/test/compilers/gcc-arm-none-eabi-7-2018-q2-update/bin/../lib/gcc/arm-none-eabi/7.3.1/../../../../arm-none-eabi/lib/thumb/v7e-m/fpv5/softfp/libc_nano.a(lib_a-memcpy-stub.o)
                              /home/andy/code/dbc/test/compilers/gcc-arm-none-eabi-7-2018-q2-update/bin/../lib/gcc/arm-none-eabi/7.3.1/../../../../arm-none-eabi/lib/thumb/v7e-m/fpv5/softfp/libc_nano.a(lib_a-fgets.o) (memcpy)
/home/andy/code/dbc/test/compilers/gcc-arm-none-eabi-7-2018-q2-update/bin/../lib/gcc/arm-none-eabi/7.3.1/../../../../arm-none-eabi/lib/thumb/v7e-m/fpv5/softfp/libc_nano.a(lib_a-memset.o)
                              /home/andy/code/dbc/test/compilers/gcc-arm-none-eabi-7-2018-q2-update/bin/../lib/gcc/arm-none-eabi/7.3.1/../../../../arm-none-eabi/lib/thumb/v7e-m/fpv5/softfp/crt0.o (memset)
/home/andy/code/dbc/test/compilers/gcc-arm-none-eabi-7-2018-q2-update/bin/../lib/gcc/arm-none-eabi/7.3.1/../../../../arm-none-eabi/lib/thumb/v7e-m/fpv5/softfp/libc_nano.a(lib_a-month_lengths.o)
                              /home/andy/code/dbc/test/compilers/gcc-arm-none-eabi-7-2018-q2-update/bin/../lib/gcc/arm-none-eabi/7.3.1/../../../../arm-none-eabi/lib/thumb/v7e-m/fpv5/softfp/libc_nano.a(lib_a-lcltime_r.o) (__month_lengths)
/home/andy/code/dbc/test/compilers/gcc-arm-none-eabi-7-2018-q2-update/bin/../lib/gcc/arm-none-eabi/7.3.1/../../../../arm-none-eabi/lib/thumb/v7e-m/fpv5/softfp/libc_nano.a(lib_a-nano-callocr.o)
                              BUILD/GIGA/GCC_ARM-CUSTOM/mbed-os/platform/source/mbed_alloc_wrappers.o (symbol from plugin) (_calloc_r)
/home/andy/code/dbc/test/compilers/gcc-arm-none-eabi-7-2018-q2-update/bin/../lib/gcc/arm-none-eabi/7.3.1/../../../../arm-none-eabi/lib/thumb/v7e-m/fpv5/softfp/libc_nano.a(lib_a-nano-freer.o)
                              BUILD/GIGA/GCC_ARM-CUSTOM/mbed-os/platform/source/mbed_alloc_wrappers.o (symbol from plugin) (_free_r)
/home/andy/code/dbc/test/compilers/gcc-arm-none-eabi-7-2018-q2-update/bin/../lib/gcc/arm-none-eabi/7.3.1/../../../../arm-none-eabi/lib/thumb/v7e-m/fpv5/softfp/libc_nano.a(lib_a-nano-malignr.o)
                              BUILD/GIGA/GCC_ARM-CUSTOM/mbed-os/platform/source/mbed_alloc_wrappers.o (symbol from plugin) (_memalign_r)
/home/andy/code/dbc/test/compilers/gcc-arm-none-eabi-7-2018-q2-update/bin/../lib/gcc/arm-none-eabi/7.3.1/../../../../arm-none-eabi/lib/thumb/v7e-m/fpv5/softfp/libc_nano.a(lib_a-nano-mallocr.o)
                              (_malloc_r)
/home/andy/code/dbc/test/compilers/gcc-arm-none-eabi-7-2018-q2-update/bin/../lib/gcc/arm-none-eabi/7.3.1/../../../../arm-none-eabi/lib/thumb/v7e-m/fpv5/softfp/libc_nano.a(lib_a-nano-reallocr.o)
                              BUILD/GIGA/GCC_ARM-CUSTOM/mbed-os/platform/source/mbed_alloc_wrappers.o (symbol from plugin) (_realloc_r)
/home/andy/code/dbc/test/compilers/gcc-arm-none-eabi-7-2018-q2-update/bin/../lib/gcc/arm-none-eabi/7.3.1/../../../../arm-none-eabi/lib/thumb/v7e-m/fpv5/softfp/libc_nano.a(lib_a-openr.o)
                              /home/andy/code/dbc/test/compilers/gcc-arm-none-eabi-7-2018-q2-update/bin/../lib/gcc/arm-none-eabi/7.3.1/../../../../arm-none-eabi/lib/thumb/v7e-m/fpv5/softfp/libc_nano.a(lib_a-fopen.o) (_open_r)
/home/andy/code/dbc/test/compilers/gcc-arm-none-eabi-7-2018-q2-update/bin/../lib/gcc/arm-none-eabi/7.3.1/../../../../arm-none-eabi/lib/thumb/v7e-m/fpv5/softfp/libc_nano.a(lib_a-reent.o)
                              /home/andy/code/dbc/test/compilers/gcc-arm-none-eabi-7-2018-q2-update/bin/../lib/gcc/arm-none-eabi/7.3.1/../../../../arm-none-eabi/lib/thumb/v7e-m/fpv5/softfp/libc_nano.a(lib_a-openr.o) (errno)
/home/andy/code/dbc/test/compilers/gcc-arm-none-eabi-7-2018-q2-update/bin/../lib/gcc/arm-none-eabi/7.3.1/../../../../arm-none-eabi/lib/thumb/v7e-m/fpv5/softfp/libc_nano.a(lib_a-refill.o)
                              /home/andy/code/dbc/test/compilers/gcc-arm-none-eabi-7-2018-q2-update/bin/../lib/gcc/arm-none-eabi/7.3.1/../../../../arm-none-eabi/lib/thumb/v7e-m/fpv5/softfp/libc_nano.a(lib_a-fgets.o) (__srefill_r)
/home/andy/code/dbc/test/compilers/gcc-arm-none-eabi-7-2018-q2-update/bin/../lib/gcc/arm-none-eabi/7.3.1/../../../../arm-none-eabi/lib/thumb/v7e-m/fpv5/softfp/libc_nano.a(lib_a-rget.o)
                              /home/andy/code/dbc/test/compilers/gcc-arm-none-eabi-7-2018-q2-update/bin/../lib/gcc/arm-none-eabi/7.3.1/../../../../arm-none-eabi/lib/thumb/v7e-m/fpv5/softfp/libc_nano.a(lib_a-fgetc.o) (__srget_r)
/home/andy/code/dbc/test/compilers/gcc-arm-none-eabi-7-2018-q2-update/bin/../lib/gcc/arm-none-eabi/7.3.1/../../../../arm-none-eabi/lib/thumb/v7e-m/fpv5/softfp/libc_nano.a(lib_a-sbrkr.o)
                              /home/andy/code/dbc/test/compilers/gcc-arm-none-eabi-7-2018-q2-update/bin/../lib/gcc/arm-none-eabi/7.3.1/../../../../arm-none-eabi/lib/thumb/v7e-m/fpv5/softfp/libc_nano.a(lib_a-nano-mallocr.o) (_sbrk_r)
/home/andy/code/dbc/test/compilers/gcc-arm-none-eabi-7-2018-q2-update/bin/../lib/gcc/arm-none-eabi/7.3.1/../../../../arm-none-eabi/lib/thumb/v7e-m/fpv5/softfp/libc_nano.a(lib_a-setbuf.o)
                              BUILD/GIGA/GCC_ARM-CUSTOM/mbed-os/platform/source/mbed_retarget.o (symbol from plugin) (setbuf)
/home/andy/code/dbc/test/compilers/gcc-arm-none-eabi-7-2018-q2-update/bin/../lib/gcc/arm-none-eabi/7.3.1/../../../../arm-none-eabi/lib/thumb/v7e-m/fpv5/softfp/libc_nano.a(lib_a-setvbuf.o)
                              /home/andy/code/dbc/test/compilers/gcc-arm-none-eabi-7-2018-q2-update/bin/../lib/gcc/arm-none-eabi/7.3.1/../../../../arm-none-eabi/lib/thumb/v7e-m/fpv5/softfp/libc_nano.a(lib_a-setbuf.o) (setvbuf)
/home/andy/code/dbc/test/compilers/gcc-arm-none-eabi-7-2018-q2-update/bin/../lib/gcc/arm-none-eabi/7.3.1/../../../../arm-none-eabi/lib/thumb/v7e-m/fpv5/softfp/libc_nano.a(lib_a-stdio.o)
                              /home/andy/code/dbc/test/compilers/gcc-arm-none-eabi-7-2018-q2-update/bin/../lib/gcc/arm-none-eabi/7.3.1/../../../../arm-none-eabi/lib/thumb/v7e-m/fpv5/softfp/libc_nano.a(lib_a-findfp.o) (__sread)
/home/andy/code/dbc/test/compilers/gcc-arm-none-eabi-7-2018-q2-update/bin/../lib/gcc/arm-none-eabi/7.3.1/../../../../arm-none-eabi/lib/thumb/v7e-m/fpv5/softfp/libc_nano.a(lib_a-tzcalc_limits.o)
                              /home/andy/code/dbc/test/compilers/gcc-arm-none-eabi-7-2018-q2-update/bin/../lib/gcc/arm-none-eabi/7.3.1/../../../../arm-none-eabi/lib/thumb/v7e-m/fpv5/softfp/libc_nano.a(lib_a-lcltime_r.o) (__tzcalc_limits)
/home/andy/code/dbc/test/compilers/gcc-arm-none-eabi-7-2018-q2-update/bin/../lib/gcc/arm-none-eabi/7.3.1/../../../../arm-none-eabi/lib/thumb/v7e-m/fpv5/softfp/libc_nano.a(lib_a-tzlock.o)
                              /home/andy/code/dbc/test/compilers/gcc-arm-none-eabi-7-2018-q2-update/bin/../lib/gcc/arm-none-eabi/7.3.1/../../../../arm-none-eabi/lib/thumb/v7e-m/fpv5/softfp/libc_nano.a(lib_a-lcltime_r.o) (__tz_lock)
/home/andy/code/dbc/test/compilers/gcc-arm-none-eabi-7-2018-q2-update/bin/../lib/gcc/arm-none-eabi/7.3.1/../../../../arm-none-eabi/lib/thumb/v7e-m/fpv5/softfp/libc_nano.a(lib_a-tzset.o)
                              /home/andy/code/dbc/test/compilers/gcc-arm-none-eabi-7-2018-q2-update/bin/../lib/gcc/arm-none-eabi/7.3.1/../../../../arm-none-eabi/lib/thumb/v7e-m/fpv5/softfp/libc_nano.a(lib_a-lcltime_r.o) (_tzset_unlocked)
/home/andy/code/dbc/test/compilers/gcc-arm-none-eabi-7-2018-q2-update/bin/../lib/gcc/arm-none-eabi/7.3.1/../../../../arm-none-eabi/lib/thumb/v7e-m/fpv5/softfp/libc_nano.a(lib_a-tzset_r.o)
                              /home/andy/code/dbc/test/compilers/gcc-arm-none-eabi-7-2018-q2-update/bin/../lib/gcc/arm-none-eabi/7.3.1/../../../../arm-none-eabi/lib/thumb/v7e-m/fpv5/softfp/libc_nano.a(lib_a-tzset.o) (_tzset_unlocked_r)
/home/andy/code/dbc/test/compilers/gcc-arm-none-eabi-7-2018-q2-update/bin/../lib/gcc/arm-none-eabi/7.3.1/../../../../arm-none-eabi/lib/thumb/v7e-m/fpv5/softfp/libc_nano.a(lib_a-tzvars.o)
                              /home/andy/code/dbc/test/compilers/gcc-arm-none-eabi-7-2018-q2-update/bin/../lib/gcc/arm-none-eabi/7.3.1/../../../../arm-none-eabi/lib/thumb/v7e-m/fpv5/softfp/libc_nano.a(lib_a-tzset_r.o) (_timezone)
/home/andy/code/dbc/test/compilers/gcc-arm-none-eabi-7-2018-q2-update/bin/../lib/gcc/arm-none-eabi/7.3.1/../../../../arm-none-eabi/lib/thumb/v7e-m/fpv5/softfp/libc_nano.a(lib_a-writer.o)
                              /home/andy/code/dbc/test/compilers/gcc-arm-none-eabi-7-2018-q2-update/bin/../lib/gcc/arm-none-eabi/7.3.1/../../../../arm-none-eabi/lib/thumb/v7e-m/fpv5/softfp/libc_nano.a(lib_a-stdio.o) (_write_r)
/home/andy/code/dbc/test/compilers/gcc-arm-none-eabi-7-2018-q2-update/bin/../lib/gcc/arm-none-eabi/7.3.1/../../../../arm-none-eabi/lib/thumb/v7e-m/fpv5/softfp/libc_nano.a(lib_a-closer.o)
                              /home/andy/code/dbc/test/compilers/gcc-arm-none-eabi-7-2018-q2-update/bin/../lib/gcc/arm-none-eabi/7.3.1/../../../../arm-none-eabi/lib/thumb/v7e-m/fpv5/softfp/libc_nano.a(lib_a-stdio.o) (_close_r)
/home/andy/code/dbc/test/compilers/gcc-arm-none-eabi-7-2018-q2-update/bin/../lib/gcc/arm-none-eabi/7.3.1/../../../../arm-none-eabi/lib/thumb/v7e-m/fpv5/softfp/libc_nano.a(lib_a-flags.o)
                              /home/andy/code/dbc/test/compilers/gcc-arm-none-eabi-7-2018-q2-update/bin/../lib/gcc/arm-none-eabi/7.3.1/../../../../arm-none-eabi/lib/thumb/v7e-m/fpv5/softfp/libc_nano.a(lib_a-fopen.o) (__sflags)
/home/andy/code/dbc/test/compilers/gcc-arm-none-eabi-7-2018-q2-update/bin/../lib/gcc/arm-none-eabi/7.3.1/../../../../arm-none-eabi/lib/thumb/v7e-m/fpv5/softfp/libc_nano.a(lib_a-fstatr.o)
                              /home/andy/code/dbc/test/compilers/gcc-arm-none-eabi-7-2018-q2-update/bin/../lib/gcc/arm-none-eabi/7.3.1/../../../../arm-none-eabi/lib/thumb/v7e-m/fpv5/softfp/libc_nano.a(lib_a-makebuf.o) (_fstat_r)
/home/andy/code/dbc/test/compilers/gcc-arm-none-eabi-7-2018-q2-update/bin/../lib/gcc/arm-none-eabi/7.3.1/../../../../arm-none-eabi/lib/thumb/v7e-m/fpv5/softfp/libc_nano.a(lib_a-getenv_r.o)
                              /home/andy/code/dbc/test/compilers/gcc-arm-none-eabi-7-2018-q2-update/bin/../lib/gcc/arm-none-eabi/7.3.1/../../../../arm-none-eabi/lib/thumb/v7e-m/fpv5/softfp/libc_nano.a(lib_a-tzset_r.o) (_getenv_r)
/home/andy/code/dbc/test/compilers/gcc-arm-none-eabi-7-2018-q2-update/bin/../lib/gcc/arm-none-eabi/7.3.1/../../../../arm-none-eabi/lib/thumb/v7e-m/fpv5/softfp/libc_nano.a(lib_a-gettzinfo.o)
                              /home/andy/code/dbc/test/compilers/gcc-arm-none-eabi-7-2018-q2-update/bin/../lib/gcc/arm-none-eabi/7.3.1/../../../../arm-none-eabi/lib/thumb/v7e-m/fpv5/softfp/libc_nano.a(lib_a-lcltime_r.o) (__gettzinfo)
/home/andy/code/dbc/test/compilers/gcc-arm-none-eabi-7-2018-q2-update/bin/../lib/gcc/arm-none-eabi/7.3.1/../../../../arm-none-eabi/lib/thumb/v7e-m/fpv5/softfp/libc_nano.a(lib_a-gmtime_r.o)
                              /home/andy/code/dbc/test/compilers/gcc-arm-none-eabi-7-2018-q2-update/bin/../lib/gcc/arm-none-eabi/7.3.1/../../../../arm-none-eabi/lib/thumb/v7e-m/fpv5/softfp/libc_nano.a(lib_a-lcltime_r.o) (gmtime_r)
/home/andy/code/dbc/test/compilers/gcc-arm-none-eabi-7-2018-q2-update/bin/../lib/gcc/arm-none-eabi/7.3.1/../../../../arm-none-eabi/lib/thumb/v7e-m/fpv5/softfp/libc_nano.a(lib_a-isattyr.o)
                              /home/andy/code/dbc/test/compilers/gcc-arm-none-eabi-7-2018-q2-update/bin/../lib/gcc/arm-none-eabi/7.3.1/../../../../arm-none-eabi/lib/thumb/v7e-m/fpv5/softfp/libc_nano.a(lib_a-makebuf.o) (_isatty_r)
/home/andy/code/dbc/test/compilers/gcc-arm-none-eabi-7-2018-q2-update/bin/../lib/gcc/arm-none-eabi/7.3.1/../../../../arm-none-eabi/lib/thumb/v7e-m/fpv5/softfp/libc_nano.a(lib_a-lseekr.o)
                              /home/andy/code/dbc/test/compilers/gcc-arm-none-eabi-7-2018-q2-update/bin/../lib/gcc/arm-none-eabi/7.3.1/../../../../arm-none-eabi/lib/thumb/v7e-m/fpv5/softfp/libc_nano.a(lib_a-stdio.o) (_lseek_r)
/home/andy/code/dbc/test/compilers/gcc-arm-none-eabi-7-2018-q2-update/bin/../lib/gcc/arm-none-eabi/7.3.1/../../../../arm-none-eabi/lib/thumb/v7e-m/fpv5/softfp/libc_nano.a(lib_a-nano-msizer.o)
                              /home/andy/code/dbc/test/compilers/gcc-arm-none-eabi-7-2018-q2-update/bin/../lib/gcc/arm-none-eabi/7.3.1/../../../../arm-none-eabi/lib/thumb/v7e-m/fpv5/softfp/libc_nano.a(lib_a-nano-reallocr.o) (_malloc_usable_size_r)
/home/andy/code/dbc/test/compilers/gcc-arm-none-eabi-7-2018-q2-update/bin/../lib/gcc/arm-none-eabi/7.3.1/../../../../arm-none-eabi/lib/thumb/v7e-m/fpv5/softfp/libc_nano.a(lib_a-readr.o)
                              /home/andy/code/dbc/test/compilers/gcc-arm-none-eabi-7-2018-q2-update/bin/../lib/gcc/arm-none-eabi/7.3.1/../../../../arm-none-eabi/lib/thumb/v7e-m/fpv5/softfp/libc_nano.a(lib_a-stdio.o) (_read_r)
/home/andy/code/dbc/test/compilers/gcc-arm-none-eabi-7-2018-q2-update/bin/../lib/gcc/arm-none-eabi/7.3.1/../../../../arm-none-eabi/lib/thumb/v7e-m/fpv5/softfp/libc_nano.a(lib_a-sscanf.o)
                              /home/andy/code/dbc/test/compilers/gcc-arm-none-eabi-7-2018-q2-update/bin/../lib/gcc/arm-none-eabi/7.3.1/../../../../arm-none-eabi/lib/thumb/v7e-m/fpv5/softfp/libc_nano.a(lib_a-tzset_r.o) (siscanf)
/home/andy/code/dbc/test/compilers/gcc-arm-none-eabi-7-2018-q2-update/bin/../lib/gcc/arm-none-eabi/7.3.1/../../../../arm-none-eabi/lib/thumb/v7e-m/fpv5/softfp/libc_nano.a(lib_a-strcmp.o)
                              /home/andy/code/dbc/test/compilers/gcc-arm-none-eabi-7-2018-q2-update/bin/../lib/gcc/arm-none-eabi/7.3.1/../../../../arm-none-eabi/lib/thumb/v7e-m/fpv5/softfp/libc_nano.a(lib_a-tzset_r.o) (strcmp)
/home/andy/code/dbc/test/compilers/gcc-arm-none-eabi-7-2018-q2-update/bin/../lib/gcc/arm-none-eabi/7.3.1/../../../../arm-none-eabi/lib/thumb/v7e-m/fpv5/softfp/libc_nano.a(lib_a-strcpy.o)
                              /home/andy/code/dbc/test/compilers/gcc-arm-none-eabi-7-2018-q2-update/bin/../lib/gcc/arm-none-eabi/7.3.1/../../../../arm-none-eabi/lib/thumb/v7e-m/fpv5/softfp/libc_nano.a(lib_a-tzset_r.o) (strcpy)
/home/andy/code/dbc/test/compilers/gcc-arm-none-eabi-7-2018-q2-update/bin/../lib/gcc/arm-none-eabi/7.3.1/../../../../arm-none-eabi/lib/thumb/v7e-m/fpv5/softfp/libc_nano.a(lib_a-strlen.o)
                              /home/andy/code/dbc/test/compilers/gcc-arm-none-eabi-7-2018-q2-update/bin/../lib/gcc/arm-none-eabi/7.3.1/../../../../arm-none-eabi/lib/thumb/v7e-m/fpv5/softfp/libc_nano.a(lib_a-tzset_r.o) (strlen)
/home/andy/code/dbc/test/compilers/gcc-arm-none-eabi-7-2018-q2-update/bin/../lib/gcc/arm-none-eabi/7.3.1/../../../../arm-none-eabi/lib/thumb/v7e-m/fpv5/softfp/libc_nano.a(lib_a-strncmp.o)
                              /home/andy/code/dbc/test/compilers/gcc-arm-none-eabi-7-2018-q2-update/bin/../lib/gcc/arm-none-eabi/7.3.1/../../../../arm-none-eabi/lib/thumb/v7e-m/fpv5/softfp/libc_nano.a(lib_a-getenv_r.o) (strncmp)
/home/andy/code/dbc/test/compilers/gcc-arm-none-eabi-7-2018-q2-update/bin/../lib/gcc/arm-none-eabi/7.3.1/../../../../arm-none-eabi/lib/thumb/v7e-m/fpv5/softfp/libc_nano.a(lib_a-strtoul.o)
                              /home/andy/code/dbc/test/compilers/gcc-arm-none-eabi-7-2018-q2-update/bin/../lib/gcc/arm-none-eabi/7.3.1/../../../../arm-none-eabi/lib/thumb/v7e-m/fpv5/softfp/libc_nano.a(lib_a-tzset_r.o) (strtoul)
/home/andy/code/dbc/test/compilers/gcc-arm-none-eabi-7-2018-q2-update/bin/../lib/gcc/arm-none-eabi/7.3.1/../../../../arm-none-eabi/lib/thumb/v7e-m/fpv5/softfp/libc_nano.a(lib_a-environ.o)
                              /home/andy/code/dbc/test/compilers/gcc-arm-none-eabi-7-2018-q2-update/bin/../lib/gcc/arm-none-eabi/7.3.1/../../../../arm-none-eabi/lib/thumb/v7e-m/fpv5/softfp/libc_nano.a(lib_a-getenv_r.o) (environ)
/home/andy/code/dbc/test/compilers/gcc-arm-none-eabi-7-2018-q2-update/bin/../lib/gcc/arm-none-eabi/7.3.1/../../../../arm-none-eabi/lib/thumb/v7e-m/fpv5/softfp/libc_nano.a(lib_a-locale.o)
                              /home/andy/code/dbc/test/compilers/gcc-arm-none-eabi-7-2018-q2-update/bin/../lib/gcc/arm-none-eabi/7.3.1/../../../../arm-none-eabi/lib/thumb/v7e-m/fpv5/softfp/libc_nano.a(lib_a-strtoul.o) (__locale_ctype_ptr_l)
/home/andy/code/dbc/test/compilers/gcc-arm-none-eabi-7-2018-q2-update/bin/../lib/gcc/arm-none-eabi/7.3.1/../../../../arm-none-eabi/lib/thumb/v7e-m/fpv5/softfp/libc_nano.a(lib_a-mbtowc_r.o)
                              /home/andy/code/dbc/test/compilers/gcc-arm-none-eabi-7-2018-q2-update/bin/../lib/gcc/arm-none-eabi/7.3.1/../../../../arm-none-eabi/lib/thumb/v7e-m/fpv5/softfp/libc_nano.a(lib_a-locale.o) (__ascii_mbtowc)
/home/andy/code/dbc/test/compilers/gcc-arm-none-eabi-7-2018-q2-update/bin/../lib/gcc/arm-none-eabi/7.3.1/../../../../arm-none-eabi/lib/thumb/v7e-m/fpv5/softfp/libc_nano.a(lib_a-nano-svfscanf.o)
                              /home/andy/code/dbc/test/compilers/gcc-arm-none-eabi-7-2018-q2-update/bin/../lib/gcc/arm-none-eabi/7.3.1/../../../../arm-none-eabi/lib/thumb/v7e-m/fpv5/softfp/libc_nano.a(lib_a-sscanf.o) (__ssvfscanf_r)
/home/andy/code/dbc/test/compilers/gcc-arm-none-eabi-7-2018-q2-update/bin/../lib/gcc/arm-none-eabi/7.3.1/../../../../arm-none-eabi/lib/thumb/v7e-m/fpv5/softfp/libc_nano.a(lib_a-nano-vfscanf_i.o)
                              /home/andy/code/dbc/test/compilers/gcc-arm-none-eabi-7-2018-q2-update/bin/../lib/gcc/arm-none-eabi/7.3.1/../../../../arm-none-eabi/lib/thumb/v7e-m/fpv5/softfp/libc_nano.a(lib_a-nano-svfscanf.o) (_scanf_chars)
/home/andy/code/dbc/test/compilers/gcc-arm-none-eabi-7-2018-q2-update/bin/../lib/gcc/arm-none-eabi/7.3.1/../../../../arm-none-eabi/lib/thumb/v7e-m/fpv5/softfp/libc_nano.a(lib_a-sccl.o)
                              /home/andy/code/dbc/test/compilers/gcc-arm-none-eabi-7-2018-q2-update/bin/../lib/gcc/arm-none-eabi/7.3.1/../../../../arm-none-eabi/lib/thumb/v7e-m/fpv5/softfp/libc_nano.a(lib_a-nano-svfscanf.o) (__sccl)
/home/andy/code/dbc/test/compilers/gcc-arm-none-eabi-7-2018-q2-update/bin/../lib/gcc/arm-none-eabi/7.3.1/../../../../arm-none-eabi/lib/thumb/v7e-m/fpv5/softfp/libc_nano.a(lib_a-strtol.o)
                              /home/andy/code/dbc/test/compilers/gcc-arm-none-eabi-7-2018-q2-update/bin/../lib/gcc/arm-none-eabi/7.3.1/../../../../arm-none-eabi/lib/thumb/v7e-m/fpv5/softfp/libc_nano.a(lib_a-nano-vfscanf_i.o) (_strtol_r)
/home/andy/code/dbc/test/compilers/gcc-arm-none-eabi-7-2018-q2-update/bin/../lib/gcc/arm-none-eabi/7.3.1/../../../../arm-none-eabi/lib/thumb/v7e-m/fpv5/softfp/libc_nano.a(lib_a-ungetc.o)
                              /home/andy/code/dbc/test/compilers/gcc-arm-none-eabi-7-2018-q2-update/bin/../lib/gcc/arm-none-eabi/7.3.1/../../../../arm-none-eabi/lib/thumb/v7e-m/fpv5/softfp/libc_nano.a(lib_a-nano-svfscanf.o) (__submore)
/home/andy/code/dbc/test/compilers/gcc-arm-none-eabi-7-2018-q2-update/bin/../lib/gcc/arm-none-eabi/7.3.1/../../../../arm-none-eabi/lib/thumb/v7e-m/fpv5/softfp/libc_nano.a(lib_a-wctomb_r.o)
                              /home/andy/code/dbc/test/compilers/gcc-arm-none-eabi-7-2018-q2-update/bin/../lib/gcc/arm-none-eabi/7.3.1/../../../../arm-none-eabi/lib/thumb/v7e-m/fpv5/softfp/libc_nano.a(lib_a-locale.o) (__ascii_wctomb)
/home/andy/code/dbc/test/compilers/gcc-arm-none-eabi-7-2018-q2-update/bin/../lib/gcc/arm-none-eabi/7.3.1/../../../../arm-none-eabi/lib/thumb/v7e-m/fpv5/softfp/libc_nano.a(lib_a-ctype_.o)
                              /home/andy/code/dbc/test/compilers/gcc-arm-none-eabi-7-2018-q2-update/bin/../lib/gcc/arm-none-eabi/7.3.1/../../../../arm-none-eabi/lib/thumb/v7e-m/fpv5/softfp/libc_nano.a(lib_a-locale.o) (_ctype_)
/home/andy/code/dbc/test/compilers/gcc-arm-none-eabi-7-2018-q2-update/bin/../lib/gcc/arm-none-eabi/7.3.1/thumb/v7e-m/fpv5/softfp/libgcc.a(_aeabi_ldivmod.o)
                              /home/andy/code/dbc/test/compilers/gcc-arm-none-eabi-7-2018-q2-update/bin/../lib/gcc/arm-none-eabi/7.3.1/../../../../arm-none-eabi/lib/thumb/v7e-m/fpv5/softfp/libc_nano.a(lib_a-gmtime_r.o) (__aeabi_ldivmod)
/home/andy/code/dbc/test/compilers/gcc-arm-none-eabi-7-2018-q2-update/bin/../lib/gcc/arm-none-eabi/7.3.1/thumb/v7e-m/fpv5/softfp/libgcc.a(_udivmoddi4.o)
                              /home/andy/code/dbc/test/compilers/gcc-arm-none-eabi-7-2018-q2-update/bin/../lib/gcc/arm-none-eabi/7.3.1/thumb/v7e-m/fpv5/softfp/libgcc.a(_aeabi_ldivmod.o) (__udivmoddi4)
/home/andy/code/dbc/test/compilers/gcc-arm-none-eabi-7-2018-q2-update/bin/../lib/gcc/arm-none-eabi/7.3.1/thumb/v7e-m/fpv5/softfp/libgcc.a(_dvmd_tls.o)
                              /home/andy/code/dbc/test/compilers/gcc-arm-none-eabi-7-2018-q2-update/bin/../lib/gcc/arm-none-eabi/7.3.1/thumb/v7e-m/fpv5/softfp/libgcc.a(_aeabi_ldivmod.o) (__aeabi_ldiv0)
/home/andy/code/dbc/test/compilers/gcc-arm-none-eabi-7-2018-q2-update/bin/../lib/gcc/arm-none-eabi/7.3.1/../../../../arm-none-eabi/lib/thumb/v7e-m/fpv5/softfp/libc_nano.a(lib_a-calloc.o)
                              /tmp/ccPT7ssV.ltrans0.ltrans.o (calloc)
/home/andy/code/dbc/test/compilers/gcc-arm-none-eabi-7-2018-q2-update/bin/../lib/gcc/arm-none-eabi/7.3.1/../../../../arm-none-eabi/lib/thumb/v7e-m/fpv5/softfp/libc_nano.a(lib_a-fputc.o)
                              /tmp/ccPT7ssV.ltrans3.ltrans.o (fputc)
/home/andy/code/dbc/test/compilers/gcc-arm-none-eabi-7-2018-q2-update/bin/../lib/gcc/arm-none-eabi/7.3.1/../../../../arm-none-eabi/lib/thumb/v7e-m/fpv5/softfp/libc_nano.a(lib_a-fwrite.o)
                              /tmp/ccPT7ssV.ltrans0.ltrans.o (fwrite)
/home/andy/code/dbc/test/compilers/gcc-arm-none-eabi-7-2018-q2-update/bin/../lib/gcc/arm-none-eabi/7.3.1/../../../../arm-none-eabi/lib/thumb/v7e-m/fpv5/softfp/libc_nano.a(lib_a-memcmp.o)
                              /tmp/ccPT7ssV.ltrans1.ltrans.o (memcmp)
/home/andy/code/dbc/test/compilers/gcc-arm-none-eabi-7-2018-q2-update/bin/../lib/gcc/arm-none-eabi/7.3.1/../../../../arm-none-eabi/lib/thumb/v7e-m/fpv5/softfp/libc_nano.a(lib_a-putc.o)
                              /home/andy/code/dbc/test/compilers/gcc-arm-none-eabi-7-2018-q2-update/bin/../lib/gcc/arm-none-eabi/7.3.1/../../../../arm-none-eabi/lib/thumb/v7e-m/fpv5/softfp/libc_nano.a(lib_a-fputc.o) (_putc_r)
/home/andy/code/dbc/test/compilers/gcc-arm-none-eabi-7-2018-q2-update/bin/../lib/gcc/arm-none-eabi/7.3.1/../../../../arm-none-eabi/lib/thumb/v7e-m/fpv5/softfp/libc_nano.a(lib_a-puts.o)
                              /tmp/ccPT7ssV.ltrans0.ltrans.o (puts)
/home/andy/code/dbc/test/compilers/gcc-arm-none-eabi-7-2018-q2-update/bin/../lib/gcc/arm-none-eabi/7.3.1/../../../../arm-none-eabi/lib/thumb/v7e-m/fpv5/softfp/libc_nano.a(lib_a-strchr.o)
                              /tmp/ccPT7ssV.ltrans2.ltrans.o (strchr)
/home/andy/code/dbc/test/compilers/gcc-arm-none-eabi-7-2018-q2-update/bin/../lib/gcc/arm-none-eabi/7.3.1/../../../../arm-none-eabi/lib/thumb/v7e-m/fpv5/softfp/libc_nano.a(lib_a-strcspn.o)
                              /tmp/ccPT7ssV.ltrans2.ltrans.o (strcspn)
/home/andy/code/dbc/test/compilers/gcc-arm-none-eabi-7-2018-q2-update/bin/../lib/gcc/arm-none-eabi/7.3.1/../../../../arm-none-eabi/lib/thumb/v7e-m/fpv5/softfp/libc_nano.a(lib_a-strncpy.o)
                              /tmp/ccPT7ssV.ltrans2.ltrans.o (strncpy)
/home/andy/code/dbc/test/compilers/gcc-arm-none-eabi-7-2018-q2-update/bin/../lib/gcc/arm-none-eabi/7.3.1/../../../../arm-none-eabi/lib/thumb/v7e-m/fpv5/softfp/libc_nano.a(lib_a-strspn.o)
                              /tmp/ccPT7ssV.ltrans2.ltrans.o (strspn)
/home/andy/code/dbc/test/compilers/gcc-arm-none-eabi-7-2018-q2-update/bin/../lib/gcc/arm-none-eabi/7.3.1/../../../../arm-none-eabi/lib/thumb/v7e-m/fpv5/softfp/libc_nano.a(lib_a-wbuf.o)
                              /home/andy/code/dbc/test/compilers/gcc-arm-none-eabi-7-2018-q2-update/bin/../lib/gcc/arm-none-eabi/7.3.1/../../../../arm-none-eabi/lib/thumb/v7e-m/fpv5/softfp/libc_nano.a(lib_a-fwrite.o) (__swbuf_r)
/home/andy/code/dbc/test/compilers/gcc-arm-none-eabi-7-2018-q2-update/bin/../lib/gcc/arm-none-eabi/7.3.1/../../../../arm-none-eabi/lib/thumb/v7e-m/fpv5/softfp/libc_nano.a(lib_a-wsetup.o)
                              /home/andy/code/dbc/test/compilers/gcc-arm-none-eabi-7-2018-q2-update/bin/../lib/gcc/arm-none-eabi/7.3.1/../../../../arm-none-eabi/lib/thumb/v7e-m/fpv5/softfp/libc_nano.a(lib_a-fwrite.o) (__swsetup_r)
/home/andy/code/dbc/test/compilers/gcc-arm-none-eabi-7-2018-q2-update/bin/../lib/gcc/arm-none-eabi/7.3.1/thumb/v7e-m/fpv5/softfp/libgcc.a(_aeabi_uldivmod.o)
                              /tmp/ccPT7ssV.ltrans0.ltrans.o (__aeabi_uldivmod)
/home/andy/code/dbc/test/compilers/gcc-arm-none-eabi-7-2018-q2-update/bin/../lib/gcc/arm-none-eabi/7.3.1/thumb/v7e-m/fpv5/softfp/libgcc.a(_popcountsi2.o)
                              /tmp/ccPT7ssV.ltrans2.ltrans.o (__popcountsi2)

Allocating common symbols
Common symbol       size              file

errno               0x4               /home/andy/code/dbc/test/compilers/gcc-arm-none-eabi-7-2018-q2-update/bin/../lib/gcc/arm-none-eabi/7.3.1/../../../../arm-none-eabi/lib/thumb/v7e-m/fpv5/softfp/libc_nano.a(lib_a-reent.o)
_main_stack         0x1000            BUILD/GIGA/GCC_ARM-CUSTOM/mbed-os/cmsis/device/rtos/source/mbed_rtos_rtx.o (symbol from plugin)
TimMasterHandle     0x4c              BUILD/GIGA/GCC_ARM-CUSTOM/mbed-os/targets/TARGET_STM/us_ticker.o (symbol from plugin)
uwTick              0x4               BUILD/GIGA/GCC_ARM-CUSTOM/mbed-os/targets/TARGET_STM/TARGET_STM32H7/STM32Cube_FW/STM32H7xx_HAL_Driver/stm32h7xx_hal.o (symbol from plugin)
singleton_mutex_obj
                    0x1c              BUILD/GIGA/GCC_ARM-CUSTOM/mbed-os/cmsis/device/rtos/source/mbed_rtos_rtx.o (symbol from plugin)
mbedtls_cipher_supported
                    0x40              BUILD/GIGA/GCC_ARM-CUSTOM/mbed-os/connectivity/mbedtls/source/cipher_wrap.o (symbol from plugin)
boot_current_slot   0x4               BUILD/GIGA/GCC_ARM-CUSTOM/mcuboot/boot/bootutil/src/bootutil_misc.o (symbol from plugin)
timer_ccr1_reg      0x4               BUILD/GIGA/GCC_ARM-CUSTOM/mbed-os/targets/TARGET_STM/us_ticker.o (symbol from plugin)
RtcHandle           0x24              BUILD/GIGA/GCC_ARM-CUSTOM/app/rtc/rtc.o (symbol from plugin)
USBD_StrDesc        0x100             BUILD/GIGA/GCC_ARM-CUSTOM/app/dfu/usbd_desc.o (symbol from plugin)
timer_dier_reg      0x4               BUILD/GIGA/GCC_ARM-CUSTOM/mbed-os/targets/TARGET_STM/us_ticker.o (symbol from plugin)
timer_cnt_reg       0x4               BUILD/GIGA/GCC_ARM-CUSTOM/mbed-os/targets/TARGET_STM/us_ticker.o (symbol from plugin)
hpcd                0x408             BUILD/GIGA/GCC_ARM-CUSTOM/app/dfu/usbd_conf.o (symbol from plugin)
_main_thread_attr   0x24              BUILD/GIGA/GCC_ARM-CUSTOM/mbed-os/cmsis/device/rtos/source/mbed_rtos_rtx.o (symbol from plugin)

Discarded input sections

 .text          0x0000000000000000        0x0 /home/andy/code/dbc/test/compilers/gcc-arm-none-eabi-7-2018-q2-update/bin/../lib/gcc/arm-none-eabi/7.3.1/thumb/v7e-m/fpv5/softfp/crti.o
 .data          0x0000000000000000        0x0 /home/andy/code/dbc/test/compilers/gcc-arm-none-eabi-7-2018-q2-update/bin/../lib/gcc/arm-none-eabi/7.3.1/thumb/v7e-m/fpv5/softfp/crti.o
 .bss           0x0000000000000000        0x0 /home/andy/code/dbc/test/compilers/gcc-arm-none-eabi-7-2018-q2-update/bin/../lib/gcc/arm-none-eabi/7.3.1/thumb/v7e-m/fpv5/softfp/crti.o
 .data          0x0000000000000000        0x4 /home/andy/code/dbc/test/compilers/gcc-arm-none-eabi-7-2018-q2-update/bin/../lib/gcc/arm-none-eabi/7.3.1/thumb/v7e-m/fpv5/softfp/crtbegin.o
 .data          0x0000000000000000        0x0 /home/andy/code/dbc/test/compilers/gcc-arm-none-eabi-7-2018-q2-update/bin/../lib/gcc/arm-none-eabi/7.3.1/../../../../arm-none-eabi/lib/thumb/v7e-m/fpv5/softfp/crt0.o
 .bss           0x0000000000000000        0x0 /home/andy/code/dbc/test/compilers/gcc-arm-none-eabi-7-2018-q2-update/bin/../lib/gcc/arm-none-eabi/7.3.1/../../../../arm-none-eabi/lib/thumb/v7e-m/fpv5/softfp/crt0.o
 .ARM.extab     0x0000000000000000        0x0 /home/andy/code/dbc/test/compilers/gcc-arm-none-eabi-7-2018-q2-update/bin/../lib/gcc/arm-none-eabi/7.3.1/../../../../arm-none-eabi/lib/thumb/v7e-m/fpv5/softfp/crt0.o
 .data          0x0000000000000000        0x0 BUILD/GIGA/GCC_ARM-CUSTOM/mbed-os/cmsis/CMSIS_5/CMSIS/RTOS2/RTX/Source/TOOLCHAIN_GCC/TARGET_RTOS_M4_M7/irq_cm4f.o
 .bss           0x0000000000000000        0x0 BUILD/GIGA/GCC_ARM-CUSTOM/mbed-os/cmsis/CMSIS_5/CMSIS/RTOS2/RTX/Source/TOOLCHAIN_GCC/TARGET_RTOS_M4_M7/irq_cm4f.o
 .rodata        0x0000000000000000        0x1 BUILD/GIGA/GCC_ARM-CUSTOM/mbed-os/cmsis/CMSIS_5/CMSIS/RTOS2/RTX/Source/TOOLCHAIN_GCC/TARGET_RTOS_M4_M7/irq_cm4f.o
 .ARM.extab     0x0000000000000000        0x0 BUILD/GIGA/GCC_ARM-CUSTOM/mbed-os/cmsis/CMSIS_5/CMSIS/RTOS2/RTX/Source/TOOLCHAIN_GCC/TARGET_RTOS_M4_M7/irq_cm4f.o
 .text          0x0000000000000000       0x14 BUILD/GIGA/GCC_ARM-CUSTOM/mbed-os/targets/TARGET_STM/TARGET_STM32H7/TARGET_STM32H747xI/TARGET_STM32H747xI_CM7/TOOLCHAIN_GCC_ARM/startup_stm32h747xx.o
 .data          0x0000000000000000        0x0 BUILD/GIGA/GCC_ARM-CUSTOM/mbed-os/targets/TARGET_STM/TARGET_STM32H7/TARGET_STM32H747xI/TARGET_STM32H747xI_CM7/TOOLCHAIN_GCC_ARM/startup_stm32h747xx.o
 .bss           0x0000000000000000        0x0 BUILD/GIGA/GCC_ARM-CUSTOM/mbed-os/targets/TARGET_STM/TARGET_STM32H7/TARGET_STM32H747xI/TARGET_STM32H747xI_CM7/TOOLCHAIN_GCC_ARM/startup_stm32h747xx.o
 .text          0x0000000000000000        0x0 /tmp/ccPT7ssV.ltrans0.ltrans.o
 .data          0x0000000000000000        0x0 /tmp/ccPT7ssV.ltrans0.ltrans.o
 .bss           0x0000000000000000        0x0 /tmp/ccPT7ssV.ltrans0.ltrans.o
 .bss.uwTick    0x0000000000000000        0x4 /tmp/ccPT7ssV.ltrans0.ltrans.o
 .text          0x0000000000000000        0x0 /tmp/ccPT7ssV.ltrans1.ltrans.o
 .data          0x0000000000000000        0x0 /tmp/ccPT7ssV.ltrans1.ltrans.o
 .bss           0x0000000000000000        0x0 /tmp/ccPT7ssV.ltrans1.ltrans.o
 .text.USB_EPStartXfer
                0x0000000000000000      0x200 /tmp/ccPT7ssV.ltrans1.ltrans.o
 .bss.SystemCoreClock
                0x0000000000000000        0x4 /tmp/ccPT7ssV.ltrans1.ltrans.o
 .bss.SystemD2Clock
                0x0000000000000000        0x4 /tmp/ccPT7ssV.ltrans1.ltrans.o
 .rodata.FIH_FAILURE
                0x0000000000000000        0x4 /tmp/ccPT7ssV.ltrans1.ltrans.o
 .rodata.FIH_SUCCESS
                0x0000000000000000        0x4 /tmp/ccPT7ssV.ltrans1.ltrans.o
 .rodata._ZTVN4mbed10FileSystemE
                0x0000000000000000       0x90 /tmp/ccPT7ssV.ltrans1.ltrans.o
 .rodata.mbedtls_sha224_info
                0x0000000000000000        0x8 /tmp/ccPT7ssV.ltrans1.ltrans.o
 .text          0x0000000000000000        0x0 /tmp/ccPT7ssV.ltrans2.ltrans.o
 .data          0x0000000000000000        0x0 /tmp/ccPT7ssV.ltrans2.ltrans.o
 .bss           0x0000000000000000        0x0 /tmp/ccPT7ssV.ltrans2.ltrans.o
 .text._ZN4mbed10FileSystem10dir_rewindEPv
                0x0000000000000000        0x8 /tmp/ccPT7ssV.ltrans2.ltrans.o
 .text._ZN4mbed10FileSystem8dir_seekEPvl
                0x0000000000000000        0x2 /tmp/ccPT7ssV.ltrans2.ltrans.o
 .text._ZN4mbed10FileSystem13file_truncateEPvl
                0x0000000000000000        0x6 /tmp/ccPT7ssV.ltrans2.ltrans.o
 .text._ZN4mbed10FileSystem9file_sizeEPv
                0x0000000000000000       0x34 /tmp/ccPT7ssV.ltrans2.ltrans.o
 .text._ZN4mbed10FileSystem9file_tellEPv
                0x0000000000000000       0x12 /tmp/ccPT7ssV.ltrans2.ltrans.o
 .text          0x0000000000000000        0x0 /tmp/ccPT7ssV.ltrans3.ltrans.o
 .data          0x0000000000000000        0x0 /tmp/ccPT7ssV.ltrans3.ltrans.o
 .bss           0x0000000000000000        0x0 /tmp/ccPT7ssV.ltrans3.ltrans.o
 .text._ZdlPvj  0x0000000000000000        0x4 /tmp/ccPT7ssV.ltrans3.ltrans.o
 .text._ZdlPv   0x0000000000000000        0x4 /tmp/ccPT7ssV.ltrans3.ltrans.o
 .text._ZnwjRKSt9nothrow_t
                0x0000000000000000        0x4 /tmp/ccPT7ssV.ltrans3.ltrans.o
 .text._ZdaPvj  0x0000000000000000        0x4 /tmp/ccPT7ssV.ltrans3.ltrans.o
 .text._ZdaPv   0x0000000000000000        0x4 /tmp/ccPT7ssV.ltrans3.ltrans.o
 .text._ZnajRKSt9nothrow_t
                0x0000000000000000        0x4 /tmp/ccPT7ssV.ltrans3.ltrans.o
 .text._Znaj    0x0000000000000000        0x4 /tmp/ccPT7ssV.ltrans3.ltrans.o
 .text          0x0000000000000000        0x0 /tmp/ccPT7ssV.ltrans4.ltrans.o
 .data          0x0000000000000000        0x0 /tmp/ccPT7ssV.ltrans4.ltrans.o
 .bss           0x0000000000000000        0x0 /tmp/ccPT7ssV.ltrans4.ltrans.o
 .text.ecp_mod_p384.lto_priv.303
                0x0000000000000000      0x618 /tmp/ccPT7ssV.ltrans4.ltrans.o
 .text.ecp_mod_p255.lto_priv.304
                0x0000000000000000       0x8c /tmp/ccPT7ssV.ltrans4.ltrans.o
 .text          0x0000000000000000        0x0 BUILD/GIGA/GCC_ARM-CUSTOM/mbed-os/platform/source/TARGET_CORTEX_M/TOOLCHAIN_GCC/except.o
 .data          0x0000000000000000        0x0 BUILD/GIGA/GCC_ARM-CUSTOM/mbed-os/platform/source/TARGET_CORTEX_M/TOOLCHAIN_GCC/except.o
 .bss           0x0000000000000000        0x0 BUILD/GIGA/GCC_ARM-CUSTOM/mbed-os/platform/source/TARGET_CORTEX_M/TOOLCHAIN_GCC/except.o
 .ARM.attributes
                0x0000000000000000       0x23 BUILD/GIGA/GCC_ARM-CUSTOM/mbed-os/platform/source/TARGET_CORTEX_M/TOOLCHAIN_GCC/except.o
 .text          0x0000000000000000        0x0 /home/andy/code/dbc/test/compilers/gcc-arm-none-eabi-7-2018-q2-update/bin/../lib/gcc/arm-none-eabi/7.3.1/../../../../arm-none-eabi/lib/thumb/v7e-m/fpv5/softfp/libstdc++_nano.a(new_handler.o)
 .data          0x0000000000000000        0x0 /home/andy/code/dbc/test/compilers/gcc-arm-none-eabi-7-2018-q2-update/bin/../lib/gcc/arm-none-eabi/7.3.1/../../../../arm-none-eabi/lib/thumb/v7e-m/fpv5/softfp/libstdc++_nano.a(new_handler.o)
 .bss           0x0000000000000000        0x0 /home/andy/code/dbc/test/compilers/gcc-arm-none-eabi-7-2018-q2-update/bin/../lib/gcc/arm-none-eabi/7.3.1/../../../../arm-none-eabi/lib/thumb/v7e-m/fpv5/softfp/libstdc++_nano.a(new_handler.o)
 .text._ZSt15set_new_handlerPFvvE
                0x0000000000000000       0x20 /home/andy/code/dbc/test/compilers/gcc-arm-none-eabi-7-2018-q2-update/bin/../lib/gcc/arm-none-eabi/7.3.1/../../../../arm-none-eabi/lib/thumb/v7e-m/fpv5/softfp/libstdc++_nano.a(new_handler.o)
 .text._ZSt15get_new_handlerv
                0x0000000000000000       0x10 /home/andy/code/dbc/test/compilers/gcc-arm-none-eabi-7-2018-q2-update/bin/../lib/gcc/arm-none-eabi/7.3.1/../../../../arm-none-eabi/lib/thumb/v7e-m/fpv5/softfp/libstdc++_nano.a(new_handler.o)
 .bss._ZN12_GLOBAL__N_113__new_handlerE
                0x0000000000000000        0x4 /home/andy/code/dbc/test/compilers/gcc-arm-none-eabi-7-2018-q2-update/bin/../lib/gcc/arm-none-eabi/7.3.1/../../../../arm-none-eabi/lib/thumb/v7e-m/fpv5/softfp/libstdc++_nano.a(new_handler.o)
 .rodata._ZSt7nothrow
                0x0000000000000000        0x1 /home/andy/code/dbc/test/compilers/gcc-arm-none-eabi-7-2018-q2-update/bin/../lib/gcc/arm-none-eabi/7.3.1/../../../../arm-none-eabi/lib/thumb/v7e-m/fpv5/softfp/libstdc++_nano.a(new_handler.o)
 .debug_frame   0x0000000000000000       0x30 /home/andy/code/dbc/test/compilers/gcc-arm-none-eabi-7-2018-q2-update/bin/../lib/gcc/arm-none-eabi/7.3.1/../../../../arm-none-eabi/lib/thumb/v7e-m/fpv5/softfp/libstdc++_nano.a(new_handler.o)
 .ARM.attributes
                0x0000000000000000       0x30 /home/andy/code/dbc/test/compilers/gcc-arm-none-eabi-7-2018-q2-update/bin/../lib/gcc/arm-none-eabi/7.3.1/../../../../arm-none-eabi/lib/thumb/v7e-m/fpv5/softfp/libstdc++_nano.a(new_handler.o)
 .text          0x0000000000000000        0x0 /home/andy/code/dbc/test/compilers/gcc-arm-none-eabi-7-2018-q2-update/bin/../lib/gcc/arm-none-eabi/7.3.1/../../../../arm-none-eabi/lib/thumb/v7e-m/fpv5/softfp/libc_nano.a(lib_a-errno.o)
 .data          0x0000000000000000        0x0 /home/andy/code/dbc/test/compilers/gcc-arm-none-eabi-7-2018-q2-update/bin/../lib/gcc/arm-none-eabi/7.3.1/../../../../arm-none-eabi/lib/thumb/v7e-m/fpv5/softfp/libc_nano.a(lib_a-errno.o)
 .bss           0x0000000000000000        0x0 /home/andy/code/dbc/test/compilers/gcc-arm-none-eabi-7-2018-q2-update/bin/../lib/gcc/arm-none-eabi/7.3.1/../../../../arm-none-eabi/lib/thumb/v7e-m/fpv5/softfp/libc_nano.a(lib_a-errno.o)
 .text          0x0000000000000000        0x0 /home/andy/code/dbc/test/compilers/gcc-arm-none-eabi-7-2018-q2-update/bin/../lib/gcc/arm-none-eabi/7.3.1/../../../../arm-none-eabi/lib/thumb/v7e-m/fpv5/softfp/libc_nano.a(lib_a-fclose.o)
 .data          0x0000000000000000        0x0 /home/andy/code/dbc/test/compilers/gcc-arm-none-eabi-7-2018-q2-update/bin/../lib/gcc/arm-none-eabi/7.3.1/../../../../arm-none-eabi/lib/thumb/v7e-m/fpv5/softfp/libc_nano.a(lib_a-fclose.o)
 .bss           0x0000000000000000        0x0 /home/andy/code/dbc/test/compilers/gcc-arm-none-eabi-7-2018-q2-update/bin/../lib/gcc/arm-none-eabi/7.3.1/../../../../arm-none-eabi/lib/thumb/v7e-m/fpv5/softfp/libc_nano.a(lib_a-fclose.o)
 .text          0x0000000000000000        0x0 /home/andy/code/dbc/test/compilers/gcc-arm-none-eabi-7-2018-q2-update/bin/../lib/gcc/arm-none-eabi/7.3.1/../../../../arm-none-eabi/lib/thumb/v7e-m/fpv5/softfp/libc_nano.a(lib_a-fflush.o)
 .data          0x0000000000000000        0x0 /home/andy/code/dbc/test/compilers/gcc-arm-none-eabi-7-2018-q2-update/bin/../lib/gcc/arm-none-eabi/7.3.1/../../../../arm-none-eabi/lib/thumb/v7e-m/fpv5/softfp/libc_nano.a(lib_a-fflush.o)
 .bss           0x0000000000000000        0x0 /home/andy/code/dbc/test/compilers/gcc-arm-none-eabi-7-2018-q2-update/bin/../lib/gcc/arm-none-eabi/7.3.1/../../../../arm-none-eabi/lib/thumb/v7e-m/fpv5/softfp/libc_nano.a(lib_a-fflush.o)
 .text          0x0000000000000000        0x0 /home/andy/code/dbc/test/compilers/gcc-arm-none-eabi-7-2018-q2-update/bin/../lib/gcc/arm-none-eabi/7.3.1/../../../../arm-none-eabi/lib/thumb/v7e-m/fpv5/softfp/libc_nano.a(lib_a-fgetc.o)
 .data          0x0000000000000000        0x0 /home/andy/code/dbc/test/compilers/gcc-arm-none-eabi-7-2018-q2-update/bin/../lib/gcc/arm-none-eabi/7.3.1/../../../../arm-none-eabi/lib/thumb/v7e-m/fpv5/softfp/libc_nano.a(lib_a-fgetc.o)
 .bss           0x0000000000000000        0x0 /home/andy/code/dbc/test/compilers/gcc-arm-none-eabi-7-2018-q2-update/bin/../lib/gcc/arm-none-eabi/7.3.1/../../../../arm-none-eabi/lib/thumb/v7e-m/fpv5/softfp/libc_nano.a(lib_a-fgetc.o)
 .text._fgetc_r
                0x0000000000000000       0x58 /home/andy/code/dbc/test/compilers/gcc-arm-none-eabi-7-2018-q2-update/bin/../lib/gcc/arm-none-eabi/7.3.1/../../../../arm-none-eabi/lib/thumb/v7e-m/fpv5/softfp/libc_nano.a(lib_a-fgetc.o)
 .text.fgetc    0x0000000000000000       0x10 /home/andy/code/dbc/test/compilers/gcc-arm-none-eabi-7-2018-q2-update/bin/../lib/gcc/arm-none-eabi/7.3.1/../../../../arm-none-eabi/lib/thumb/v7e-m/fpv5/softfp/libc_nano.a(lib_a-fgetc.o)
 .debug_frame   0x0000000000000000       0x48 /home/andy/code/dbc/test/compilers/gcc-arm-none-eabi-7-2018-q2-update/bin/../lib/gcc/arm-none-eabi/7.3.1/../../../../arm-none-eabi/lib/thumb/v7e-m/fpv5/softfp/libc_nano.a(lib_a-fgetc.o)
 .ARM.attributes
                0x0000000000000000       0x30 /home/andy/code/dbc/test/compilers/gcc-arm-none-eabi-7-2018-q2-update/bin/../lib/gcc/arm-none-eabi/7.3.1/../../../../arm-none-eabi/lib/thumb/v7e-m/fpv5/softfp/libc_nano.a(lib_a-fgetc.o)
 .text          0x0000000000000000        0x0 /home/andy/code/dbc/test/compilers/gcc-arm-none-eabi-7-2018-q2-update/bin/../lib/gcc/arm-none-eabi/7.3.1/../../../../arm-none-eabi/lib/thumb/v7e-m/fpv5/softfp/libc_nano.a(lib_a-fgets.o)
 .data          0x0000000000000000        0x0 /home/andy/code/dbc/test/compilers/gcc-arm-none-eabi-7-2018-q2-update/bin/../lib/gcc/arm-none-eabi/7.3.1/../../../../arm-none-eabi/lib/thumb/v7e-m/fpv5/softfp/libc_nano.a(lib_a-fgets.o)
 .bss           0x0000000000000000        0x0 /home/andy/code/dbc/test/compilers/gcc-arm-none-eabi-7-2018-q2-update/bin/../lib/gcc/arm-none-eabi/7.3.1/../../../../arm-none-eabi/lib/thumb/v7e-m/fpv5/softfp/libc_nano.a(lib_a-fgets.o)
 .text._fgets_r
                0x0000000000000000       0xc0 /home/andy/code/dbc/test/compilers/gcc-arm-none-eabi-7-2018-q2-update/bin/../lib/gcc/arm-none-eabi/7.3.1/../../../../arm-none-eabi/lib/thumb/v7e-m/fpv5/softfp/libc_nano.a(lib_a-fgets.o)
 .text.fgets    0x0000000000000000       0x14 /home/andy/code/dbc/test/compilers/gcc-arm-none-eabi-7-2018-q2-update/bin/../lib/gcc/arm-none-eabi/7.3.1/../../../../arm-none-eabi/lib/thumb/v7e-m/fpv5/softfp/libc_nano.a(lib_a-fgets.o)
 .debug_frame   0x0000000000000000       0x44 /home/andy/code/dbc/test/compilers/gcc-arm-none-eabi-7-2018-q2-update/bin/../lib/gcc/arm-none-eabi/7.3.1/../../../../arm-none-eabi/lib/thumb/v7e-m/fpv5/softfp/libc_nano.a(lib_a-fgets.o)
 .ARM.attributes
                0x0000000000000000       0x30 /home/andy/code/dbc/test/compilers/gcc-arm-none-eabi-7-2018-q2-update/bin/../lib/gcc/arm-none-eabi/7.3.1/../../../../arm-none-eabi/lib/thumb/v7e-m/fpv5/softfp/libc_nano.a(lib_a-fgets.o)
 .text          0x0000000000000000        0x0 /home/andy/code/dbc/test/compilers/gcc-arm-none-eabi-7-2018-q2-update/bin/../lib/gcc/arm-none-eabi/7.3.1/../../../../arm-none-eabi/lib/thumb/v7e-m/fpv5/softfp/libc_nano.a(lib_a-findfp.o)
 .data          0x0000000000000000        0x0 /home/andy/code/dbc/test/compilers/gcc-arm-none-eabi-7-2018-q2-update/bin/../lib/gcc/arm-none-eabi/7.3.1/../../../../arm-none-eabi/lib/thumb/v7e-m/fpv5/softfp/libc_nano.a(lib_a-findfp.o)
 .bss           0x0000000000000000        0x0 /home/andy/code/dbc/test/compilers/gcc-arm-none-eabi-7-2018-q2-update/bin/../lib/gcc/arm-none-eabi/7.3.1/../../../../arm-none-eabi/lib/thumb/v7e-m/fpv5/softfp/libc_nano.a(lib_a-findfp.o)
 .text.__fp_lock
                0x0000000000000000        0x4 /home/andy/code/dbc/test/compilers/gcc-arm-none-eabi-7-2018-q2-update/bin/../lib/gcc/arm-none-eabi/7.3.1/../../../../arm-none-eabi/lib/thumb/v7e-m/fpv5/softfp/libc_nano.a(lib_a-findfp.o)
 .text.__fp_unlock
                0x0000000000000000        0x4 /home/andy/code/dbc/test/compilers/gcc-arm-none-eabi-7-2018-q2-update/bin/../lib/gcc/arm-none-eabi/7.3.1/../../../../arm-none-eabi/lib/thumb/v7e-m/fpv5/softfp/libc_nano.a(lib_a-findfp.o)
 .text._cleanup
                0x0000000000000000        0xc /home/andy/code/dbc/test/compilers/gcc-arm-none-eabi-7-2018-q2-update/bin/../lib/gcc/arm-none-eabi/7.3.1/../../../../arm-none-eabi/lib/thumb/v7e-m/fpv5/softfp/libc_nano.a(lib_a-findfp.o)
 .text.__sinit_lock_acquire
                0x0000000000000000        0x2 /home/andy/code/dbc/test/compilers/gcc-arm-none-eabi-7-2018-q2-update/bin/../lib/gcc/arm-none-eabi/7.3.1/../../../../arm-none-eabi/lib/thumb/v7e-m/fpv5/softfp/libc_nano.a(lib_a-findfp.o)
 .text.__sinit_lock_release
                0x0000000000000000        0x2 /home/andy/code/dbc/test/compilers/gcc-arm-none-eabi-7-2018-q2-update/bin/../lib/gcc/arm-none-eabi/7.3.1/../../../../arm-none-eabi/lib/thumb/v7e-m/fpv5/softfp/libc_nano.a(lib_a-findfp.o)
 .text.__fp_lock_all
                0x0000000000000000       0x14 /home/andy/code/dbc/test/compilers/gcc-arm-none-eabi-7-2018-q2-update/bin/../lib/gcc/arm-none-eabi/7.3.1/../../../../arm-none-eabi/lib/thumb/v7e-m/fpv5/softfp/libc_nano.a(lib_a-findfp.o)
 .text.__fp_unlock_all
                0x0000000000000000       0x14 /home/andy/code/dbc/test/compilers/gcc-arm-none-eabi-7-2018-q2-update/bin/../lib/gcc/arm-none-eabi/7.3.1/../../../../arm-none-eabi/lib/thumb/v7e-m/fpv5/softfp/libc_nano.a(lib_a-findfp.o)
 .text          0x0000000000000000        0x0 /home/andy/code/dbc/test/compilers/gcc-arm-none-eabi-7-2018-q2-update/bin/../lib/gcc/arm-none-eabi/7.3.1/../../../../arm-none-eabi/lib/thumb/v7e-m/fpv5/softfp/libc_nano.a(lib_a-fopen.o)
 .data          0x0000000000000000        0x0 /home/andy/code/dbc/test/compilers/gcc-arm-none-eabi-7-2018-q2-update/bin/../lib/gcc/arm-none-eabi/7.3.1/../../../../arm-none-eabi/lib/thumb/v7e-m/fpv5/softfp/libc_nano.a(lib_a-fopen.o)
 .bss           0x0000000000000000        0x0 /home/andy/code/dbc/test/compilers/gcc-arm-none-eabi-7-2018-q2-update/bin/../lib/gcc/arm-none-eabi/7.3.1/../../../../arm-none-eabi/lib/thumb/v7e-m/fpv5/softfp/libc_nano.a(lib_a-fopen.o)
 .text          0x0000000000000000        0x0 /home/andy/code/dbc/test/compilers/gcc-arm-none-eabi-7-2018-q2-update/bin/../lib/gcc/arm-none-eabi/7.3.1/../../../../arm-none-eabi/lib/thumb/v7e-m/fpv5/softfp/libc_nano.a(lib_a-fread.o)
 .data          0x0000000000000000        0x0 /home/andy/code/dbc/test/compilers/gcc-arm-none-eabi-7-2018-q2-update/bin/../lib/gcc/arm-none-eabi/7.3.1/../../../../arm-none-eabi/lib/thumb/v7e-m/fpv5/softfp/libc_nano.a(lib_a-fread.o)
 .bss           0x0000000000000000        0x0 /home/andy/code/dbc/test/compilers/gcc-arm-none-eabi-7-2018-q2-update/bin/../lib/gcc/arm-none-eabi/7.3.1/../../../../arm-none-eabi/lib/thumb/v7e-m/fpv5/softfp/libc_nano.a(lib_a-fread.o)
 .text          0x0000000000000000        0x0 /home/andy/code/dbc/test/compilers/gcc-arm-none-eabi-7-2018-q2-update/bin/../lib/gcc/arm-none-eabi/7.3.1/../../../../arm-none-eabi/lib/thumb/v7e-m/fpv5/softfp/libc_nano.a(lib_a-fseek.o)
 .data          0x0000000000000000        0x0 /home/andy/code/dbc/test/compilers/gcc-arm-none-eabi-7-2018-q2-update/bin/../lib/gcc/arm-none-eabi/7.3.1/../../../../arm-none-eabi/lib/thumb/v7e-m/fpv5/softfp/libc_nano.a(lib_a-fseek.o)
 .bss           0x0000000000000000        0x0 /home/andy/code/dbc/test/compilers/gcc-arm-none-eabi-7-2018-q2-update/bin/../lib/gcc/arm-none-eabi/7.3.1/../../../../arm-none-eabi/lib/thumb/v7e-m/fpv5/softfp/libc_nano.a(lib_a-fseek.o)
 .text          0x0000000000000000        0x0 /home/andy/code/dbc/test/compilers/gcc-arm-none-eabi-7-2018-q2-update/bin/../lib/gcc/arm-none-eabi/7.3.1/../../../../arm-none-eabi/lib/thumb/v7e-m/fpv5/softfp/libc_nano.a(lib_a-fseeko.o)
 .data          0x0000000000000000        0x0 /home/andy/code/dbc/test/compilers/gcc-arm-none-eabi-7-2018-q2-update/bin/../lib/gcc/arm-none-eabi/7.3.1/../../../../arm-none-eabi/lib/thumb/v7e-m/fpv5/softfp/libc_nano.a(lib_a-fseeko.o)
 .bss           0x0000000000000000        0x0 /home/andy/code/dbc/test/compilers/gcc-arm-none-eabi-7-2018-q2-update/bin/../lib/gcc/arm-none-eabi/7.3.1/../../../../arm-none-eabi/lib/thumb/v7e-m/fpv5/softfp/libc_nano.a(lib_a-fseeko.o)
 .text.fseeko   0x0000000000000000       0x14 /home/andy/code/dbc/test/compilers/gcc-arm-none-eabi-7-2018-q2-update/bin/../lib/gcc/arm-none-eabi/7.3.1/../../../../arm-none-eabi/lib/thumb/v7e-m/fpv5/softfp/libc_nano.a(lib_a-fseeko.o)
 .text          0x0000000000000000        0x0 /home/andy/code/dbc/test/compilers/gcc-arm-none-eabi-7-2018-q2-update/bin/../lib/gcc/arm-none-eabi/7.3.1/../../../../arm-none-eabi/lib/thumb/v7e-m/fpv5/softfp/libc_nano.a(lib_a-ftell.o)
 .data          0x0000000000000000        0x0 /home/andy/code/dbc/test/compilers/gcc-arm-none-eabi-7-2018-q2-update/bin/../lib/gcc/arm-none-eabi/7.3.1/../../../../arm-none-eabi/lib/thumb/v7e-m/fpv5/softfp/libc_nano.a(lib_a-ftell.o)
 .bss           0x0000000000000000        0x0 /home/andy/code/dbc/test/compilers/gcc-arm-none-eabi-7-2018-q2-update/bin/../lib/gcc/arm-none-eabi/7.3.1/../../../../arm-none-eabi/lib/thumb/v7e-m/fpv5/softfp/libc_nano.a(lib_a-ftell.o)
 .text._ftell_r
                0x0000000000000000        0x4 /home/andy/code/dbc/test/compilers/gcc-arm-none-eabi-7-2018-q2-update/bin/../lib/gcc/arm-none-eabi/7.3.1/../../../../arm-none-eabi/lib/thumb/v7e-m/fpv5/softfp/libc_nano.a(lib_a-ftell.o)
 .text          0x0000000000000000        0x0 /home/andy/code/dbc/test/compilers/gcc-arm-none-eabi-7-2018-q2-update/bin/../lib/gcc/arm-none-eabi/7.3.1/../../../../arm-none-eabi/lib/thumb/v7e-m/fpv5/softfp/libc_nano.a(lib_a-ftello.o)
 .data          0x0000000000000000        0x0 /home/andy/code/dbc/test/compilers/gcc-arm-none-eabi-7-2018-q2-update/bin/../lib/gcc/arm-none-eabi/7.3.1/../../../../arm-none-eabi/lib/thumb/v7e-m/fpv5/softfp/libc_nano.a(lib_a-ftello.o)
 .bss           0x0000000000000000        0x0 /home/andy/code/dbc/test/compilers/gcc-arm-none-eabi-7-2018-q2-update/bin/../lib/gcc/arm-none-eabi/7.3.1/../../../../arm-none-eabi/lib/thumb/v7e-m/fpv5/softfp/libc_nano.a(lib_a-ftello.o)
 .text.ftello   0x0000000000000000       0x10 /home/andy/code/dbc/test/compilers/gcc-arm-none-eabi-7-2018-q2-update/bin/../lib/gcc/arm-none-eabi/7.3.1/../../../../arm-none-eabi/lib/thumb/v7e-m/fpv5/softfp/libc_nano.a(lib_a-ftello.o)
 .text          0x0000000000000000        0x0 /home/andy/code/dbc/test/compilers/gcc-arm-none-eabi-7-2018-q2-update/bin/../lib/gcc/arm-none-eabi/7.3.1/../../../../arm-none-eabi/lib/thumb/v7e-m/fpv5/softfp/libc_nano.a(lib_a-fwalk.o)
 .data          0x0000000000000000        0x0 /home/andy/code/dbc/test/compilers/gcc-arm-none-eabi-7-2018-q2-update/bin/../lib/gcc/arm-none-eabi/7.3.1/../../../../arm-none-eabi/lib/thumb/v7e-m/fpv5/softfp/libc_nano.a(lib_a-fwalk.o)
 .bss           0x0000000000000000        0x0 /home/andy/code/dbc/test/compilers/gcc-arm-none-eabi-7-2018-q2-update/bin/../lib/gcc/arm-none-eabi/7.3.1/../../../../arm-none-eabi/lib/thumb/v7e-m/fpv5/softfp/libc_nano.a(lib_a-fwalk.o)
 .text          0x0000000000000000        0x0 /home/andy/code/dbc/test/compilers/gcc-arm-none-eabi-7-2018-q2-update/bin/../lib/gcc/arm-none-eabi/7.3.1/../../../../arm-none-eabi/lib/thumb/v7e-m/fpv5/softfp/libc_nano.a(lib_a-impure.o)
 .data          0x0000000000000000        0x0 /home/andy/code/dbc/test/compilers/gcc-arm-none-eabi-7-2018-q2-update/bin/../lib/gcc/arm-none-eabi/7.3.1/../../../../arm-none-eabi/lib/thumb/v7e-m/fpv5/softfp/libc_nano.a(lib_a-impure.o)
 .bss           0x0000000000000000        0x0 /home/andy/code/dbc/test/compilers/gcc-arm-none-eabi-7-2018-q2-update/bin/../lib/gcc/arm-none-eabi/7.3.1/../../../../arm-none-eabi/lib/thumb/v7e-m/fpv5/softfp/libc_nano.a(lib_a-impure.o)
 .text          0x0000000000000000        0x0 /home/andy/code/dbc/test/compilers/gcc-arm-none-eabi-7-2018-q2-update/bin/../lib/gcc/arm-none-eabi/7.3.1/../../../../arm-none-eabi/lib/thumb/v7e-m/fpv5/softfp/libc_nano.a(lib_a-init.o)
 .data          0x0000000000000000        0x0 /home/andy/code/dbc/test/compilers/gcc-arm-none-eabi-7-2018-q2-update/bin/../lib/gcc/arm-none-eabi/7.3.1/../../../../arm-none-eabi/lib/thumb/v7e-m/fpv5/softfp/libc_nano.a(lib_a-init.o)
 .bss           0x0000000000000000        0x0 /home/andy/code/dbc/test/compilers/gcc-arm-none-eabi-7-2018-q2-update/bin/../lib/gcc/arm-none-eabi/7.3.1/../../../../arm-none-eabi/lib/thumb/v7e-m/fpv5/softfp/libc_nano.a(lib_a-init.o)
 .text          0x0000000000000000        0x0 /home/andy/code/dbc/test/compilers/gcc-arm-none-eabi-7-2018-q2-update/bin/../lib/gcc/arm-none-eabi/7.3.1/../../../../arm-none-eabi/lib/thumb/v7e-m/fpv5/softfp/libc_nano.a(lib_a-lcltime.o)
 .data          0x0000000000000000        0x0 /home/andy/code/dbc/test/compilers/gcc-arm-none-eabi-7-2018-q2-update/bin/../lib/gcc/arm-none-eabi/7.3.1/../../../../arm-none-eabi/lib/thumb/v7e-m/fpv5/softfp/libc_nano.a(lib_a-lcltime.o)
 .bss           0x0000000000000000        0x0 /home/andy/code/dbc/test/compilers/gcc-arm-none-eabi-7-2018-q2-update/bin/../lib/gcc/arm-none-eabi/7.3.1/../../../../arm-none-eabi/lib/thumb/v7e-m/fpv5/softfp/libc_nano.a(lib_a-lcltime.o)
 .text          0x0000000000000000        0x0 /home/andy/code/dbc/test/compilers/gcc-arm-none-eabi-7-2018-q2-update/bin/../lib/gcc/arm-none-eabi/7.3.1/../../../../arm-none-eabi/lib/thumb/v7e-m/fpv5/softfp/libc_nano.a(lib_a-lcltime_r.o)
 .data          0x0000000000000000        0x0 /home/andy/code/dbc/test/compilers/gcc-arm-none-eabi-7-2018-q2-update/bin/../lib/gcc/arm-none-eabi/7.3.1/../../../../arm-none-eabi/lib/thumb/v7e-m/fpv5/softfp/libc_nano.a(lib_a-lcltime_r.o)
 .bss           0x0000000000000000        0x0 /home/andy/code/dbc/test/compilers/gcc-arm-none-eabi-7-2018-q2-update/bin/../lib/gcc/arm-none-eabi/7.3.1/../../../../arm-none-eabi/lib/thumb/v7e-m/fpv5/softfp/libc_nano.a(lib_a-lcltime_r.o)
 .text          0x0000000000000000        0x0 /home/andy/code/dbc/test/compilers/gcc-arm-none-eabi-7-2018-q2-update/bin/../lib/gcc/arm-none-eabi/7.3.1/../../../../arm-none-eabi/lib/thumb/v7e-m/fpv5/softfp/libc_nano.a(lib_a-makebuf.o)
 .data          0x0000000000000000        0x0 /home/andy/code/dbc/test/compilers/gcc-arm-none-eabi-7-2018-q2-update/bin/../lib/gcc/arm-none-eabi/7.3.1/../../../../arm-none-eabi/lib/thumb/v7e-m/fpv5/softfp/libc_nano.a(lib_a-makebuf.o)
 .bss           0x0000000000000000        0x0 /home/andy/code/dbc/test/compilers/gcc-arm-none-eabi-7-2018-q2-update/bin/../lib/gcc/arm-none-eabi/7.3.1/../../../../arm-none-eabi/lib/thumb/v7e-m/fpv5/softfp/libc_nano.a(lib_a-makebuf.o)
 .text          0x0000000000000000        0x0 /home/andy/code/dbc/test/compilers/gcc-arm-none-eabi-7-2018-q2-update/bin/../lib/gcc/arm-none-eabi/7.3.1/../../../../arm-none-eabi/lib/thumb/v7e-m/fpv5/softfp/libc_nano.a(lib_a-malloc.o)
 .data          0x0000000000000000        0x0 /home/andy/code/dbc/test/compilers/gcc-arm-none-eabi-7-2018-q2-update/bin/../lib/gcc/arm-none-eabi/7.3.1/../../../../arm-none-eabi/lib/thumb/v7e-m/fpv5/softfp/libc_nano.a(lib_a-malloc.o)
 .bss           0x0000000000000000        0x0 /home/andy/code/dbc/test/compilers/gcc-arm-none-eabi-7-2018-q2-update/bin/../lib/gcc/arm-none-eabi/7.3.1/../../../../arm-none-eabi/lib/thumb/v7e-m/fpv5/softfp/libc_nano.a(lib_a-malloc.o)
 .data          0x0000000000000000        0x0 /home/andy/code/dbc/test/compilers/gcc-arm-none-eabi-7-2018-q2-update/bin/../lib/gcc/arm-none-eabi/7.3.1/../../../../arm-none-eabi/lib/thumb/v7e-m/fpv5/softfp/libc_nano.a(lib_a-memchr.o)
 .bss           0x0000000000000000        0x0 /home/andy/code/dbc/test/compilers/gcc-arm-none-eabi-7-2018-q2-update/bin/../lib/gcc/arm-none-eabi/7.3.1/../../../../arm-none-eabi/lib/thumb/v7e-m/fpv5/softfp/libc_nano.a(lib_a-memchr.o)
 .text          0x0000000000000000        0x0 /home/andy/code/dbc/test/compilers/gcc-arm-none-eabi-7-2018-q2-update/bin/../lib/gcc/arm-none-eabi/7.3.1/../../../../arm-none-eabi/lib/thumb/v7e-m/fpv5/softfp/libc_nano.a(lib_a-memcpy-stub.o)
 .data          0x0000000000000000        0x0 /home/andy/code/dbc/test/compilers/gcc-arm-none-eabi-7-2018-q2-update/bin/../lib/gcc/arm-none-eabi/7.3.1/../../../../arm-none-eabi/lib/thumb/v7e-m/fpv5/softfp/libc_nano.a(lib_a-memcpy-stub.o)
 .bss           0x0000000000000000        0x0 /home/andy/code/dbc/test/compilers/gcc-arm-none-eabi-7-2018-q2-update/bin/../lib/gcc/arm-none-eabi/7.3.1/../../../../arm-none-eabi/lib/thumb/v7e-m/fpv5/softfp/libc_nano.a(lib_a-memcpy-stub.o)
 .text          0x0000000000000000        0x0 /home/andy/code/dbc/test/compilers/gcc-arm-none-eabi-7-2018-q2-update/bin/../lib/gcc/arm-none-eabi/7.3.1/../../../../arm-none-eabi/lib/thumb/v7e-m/fpv5/softfp/libc_nano.a(lib_a-memset.o)
 .data          0x0000000000000000        0x0 /home/andy/code/dbc/test/compilers/gcc-arm-none-eabi-7-2018-q2-update/bin/../lib/gcc/arm-none-eabi/7.3.1/../../../../arm-none-eabi/lib/thumb/v7e-m/fpv5/softfp/libc_nano.a(lib_a-memset.o)
 .bss           0x0000000000000000        0x0 /home/andy/code/dbc/test/compilers/gcc-arm-none-eabi-7-2018-q2-update/bin/../lib/gcc/arm-none-eabi/7.3.1/../../../../arm-none-eabi/lib/thumb/v7e-m/fpv5/softfp/libc_nano.a(lib_a-memset.o)
 .text          0x0000000000000000        0x0 /home/andy/code/dbc/test/compilers/gcc-arm-none-eabi-7-2018-q2-update/bin/../lib/gcc/arm-none-eabi/7.3.1/../../../../arm-none-eabi/lib/thumb/v7e-m/fpv5/softfp/libc_nano.a(lib_a-month_lengths.o)
 .data          0x0000000000000000        0x0 /home/andy/code/dbc/test/compilers/gcc-arm-none-eabi-7-2018-q2-update/bin/../lib/gcc/arm-none-eabi/7.3.1/../../../../arm-none-eabi/lib/thumb/v7e-m/fpv5/softfp/libc_nano.a(lib_a-month_lengths.o)
 .bss           0x0000000000000000        0x0 /home/andy/code/dbc/test/compilers/gcc-arm-none-eabi-7-2018-q2-update/bin/../lib/gcc/arm-none-eabi/7.3.1/../../../../arm-none-eabi/lib/thumb/v7e-m/fpv5/softfp/libc_nano.a(lib_a-month_lengths.o)
 .text          0x0000000000000000        0x0 /home/andy/code/dbc/test/compilers/gcc-arm-none-eabi-7-2018-q2-update/bin/../lib/gcc/arm-none-eabi/7.3.1/../../../../arm-none-eabi/lib/thumb/v7e-m/fpv5/softfp/libc_nano.a(lib_a-nano-callocr.o)
 .data          0x0000000000000000        0x0 /home/andy/code/dbc/test/compilers/gcc-arm-none-eabi-7-2018-q2-update/bin/../lib/gcc/arm-none-eabi/7.3.1/../../../../arm-none-eabi/lib/thumb/v7e-m/fpv5/softfp/libc_nano.a(lib_a-nano-callocr.o)
 .bss           0x0000000000000000        0x0 /home/andy/code/dbc/test/compilers/gcc-arm-none-eabi-7-2018-q2-update/bin/../lib/gcc/arm-none-eabi/7.3.1/../../../../arm-none-eabi/lib/thumb/v7e-m/fpv5/softfp/libc_nano.a(lib_a-nano-callocr.o)
 .text          0x0000000000000000        0x0 /home/andy/code/dbc/test/compilers/gcc-arm-none-eabi-7-2018-q2-update/bin/../lib/gcc/arm-none-eabi/7.3.1/../../../../arm-none-eabi/lib/thumb/v7e-m/fpv5/softfp/libc_nano.a(lib_a-nano-freer.o)
 .data          0x0000000000000000        0x0 /home/andy/code/dbc/test/compilers/gcc-arm-none-eabi-7-2018-q2-update/bin/../lib/gcc/arm-none-eabi/7.3.1/../../../../arm-none-eabi/lib/thumb/v7e-m/fpv5/softfp/libc_nano.a(lib_a-nano-freer.o)
 .bss           0x0000000000000000        0x0 /home/andy/code/dbc/test/compilers/gcc-arm-none-eabi-7-2018-q2-update/bin/../lib/gcc/arm-none-eabi/7.3.1/../../../../arm-none-eabi/lib/thumb/v7e-m/fpv5/softfp/libc_nano.a(lib_a-nano-freer.o)
 .text          0x0000000000000000        0x0 /home/andy/code/dbc/test/compilers/gcc-arm-none-eabi-7-2018-q2-update/bin/../lib/gcc/arm-none-eabi/7.3.1/../../../../arm-none-eabi/lib/thumb/v7e-m/fpv5/softfp/libc_nano.a(lib_a-nano-malignr.o)
 .data          0x0000000000000000        0x0 /home/andy/code/dbc/test/compilers/gcc-arm-none-eabi-7-2018-q2-update/bin/../lib/gcc/arm-none-eabi/7.3.1/../../../../arm-none-eabi/lib/thumb/v7e-m/fpv5/softfp/libc_nano.a(lib_a-nano-malignr.o)
 .bss           0x0000000000000000        0x0 /home/andy/code/dbc/test/compilers/gcc-arm-none-eabi-7-2018-q2-update/bin/../lib/gcc/arm-none-eabi/7.3.1/../../../../arm-none-eabi/lib/thumb/v7e-m/fpv5/softfp/libc_nano.a(lib_a-nano-malignr.o)
 .text._memalign_r
                0x0000000000000000       0x8a /home/andy/code/dbc/test/compilers/gcc-arm-none-eabi-7-2018-q2-update/bin/../lib/gcc/arm-none-eabi/7.3.1/../../../../arm-none-eabi/lib/thumb/v7e-m/fpv5/softfp/libc_nano.a(lib_a-nano-malignr.o)
 .debug_frame   0x0000000000000000       0x30 /home/andy/code/dbc/test/compilers/gcc-arm-none-eabi-7-2018-q2-update/bin/../lib/gcc/arm-none-eabi/7.3.1/../../../../arm-none-eabi/lib/thumb/v7e-m/fpv5/softfp/libc_nano.a(lib_a-nano-malignr.o)
 .ARM.attributes
                0x0000000000000000       0x30 /home/andy/code/dbc/test/compilers/gcc-arm-none-eabi-7-2018-q2-update/bin/../lib/gcc/arm-none-eabi/7.3.1/../../../../arm-none-eabi/lib/thumb/v7e-m/fpv5/softfp/libc_nano.a(lib_a-nano-malignr.o)
 .text          0x0000000000000000        0x0 /home/andy/code/dbc/test/compilers/gcc-arm-none-eabi-7-2018-q2-update/bin/../lib/gcc/arm-none-eabi/7.3.1/../../../../arm-none-eabi/lib/thumb/v7e-m/fpv5/softfp/libc_nano.a(lib_a-nano-mallocr.o)
 .data          0x0000000000000000        0x0 /home/andy/code/dbc/test/compilers/gcc-arm-none-eabi-7-2018-q2-update/bin/../lib/gcc/arm-none-eabi/7.3.1/../../../../arm-none-eabi/lib/thumb/v7e-m/fpv5/softfp/libc_nano.a(lib_a-nano-mallocr.o)
 .bss           0x0000000000000000        0x0 /home/andy/code/dbc/test/compilers/gcc-arm-none-eabi-7-2018-q2-update/bin/../lib/gcc/arm-none-eabi/7.3.1/../../../../arm-none-eabi/lib/thumb/v7e-m/fpv5/softfp/libc_nano.a(lib_a-nano-mallocr.o)
 .text          0x0000000000000000        0x0 /home/andy/code/dbc/test/compilers/gcc-arm-none-eabi-7-2018-q2-update/bin/../lib/gcc/arm-none-eabi/7.3.1/../../../../arm-none-eabi/lib/thumb/v7e-m/fpv5/softfp/libc_nano.a(lib_a-nano-reallocr.o)
 .data          0x0000000000000000        0x0 /home/andy/code/dbc/test/compilers/gcc-arm-none-eabi-7-2018-q2-update/bin/../lib/gcc/arm-none-eabi/7.3.1/../../../../arm-none-eabi/lib/thumb/v7e-m/fpv5/softfp/libc_nano.a(lib_a-nano-reallocr.o)
 .bss           0x0000000000000000        0x0 /home/andy/code/dbc/test/compilers/gcc-arm-none-eabi-7-2018-q2-update/bin/../lib/gcc/arm-none-eabi/7.3.1/../../../../arm-none-eabi/lib/thumb/v7e-m/fpv5/softfp/libc_nano.a(lib_a-nano-reallocr.o)
 .text          0x0000000000000000        0x0 /home/andy/code/dbc/test/compilers/gcc-arm-none-eabi-7-2018-q2-update/bin/../lib/gcc/arm-none-eabi/7.3.1/../../../../arm-none-eabi/lib/thumb/v7e-m/fpv5/softfp/libc_nano.a(lib_a-openr.o)
 .data          0x0000000000000000        0x0 /home/andy/code/dbc/test/compilers/gcc-arm-none-eabi-7-2018-q2-update/bin/../lib/gcc/arm-none-eabi/7.3.1/../../../../arm-none-eabi/lib/thumb/v7e-m/fpv5/softfp/libc_nano.a(lib_a-openr.o)
 .bss           0x0000000000000000        0x0 /home/andy/code/dbc/test/compilers/gcc-arm-none-eabi-7-2018-q2-update/bin/../lib/gcc/arm-none-eabi/7.3.1/../../../../arm-none-eabi/lib/thumb/v7e-m/fpv5/softfp/libc_nano.a(lib_a-openr.o)
 .text          0x0000000000000000        0x0 /home/andy/code/dbc/test/compilers/gcc-arm-none-eabi-7-2018-q2-update/bin/../lib/gcc/arm-none-eabi/7.3.1/../../../../arm-none-eabi/lib/thumb/v7e-m/fpv5/softfp/libc_nano.a(lib_a-reent.o)
 .data          0x0000000000000000        0x0 /home/andy/code/dbc/test/compilers/gcc-arm-none-eabi-7-2018-q2-update/bin/../lib/gcc/arm-none-eabi/7.3.1/../../../../arm-none-eabi/lib/thumb/v7e-m/fpv5/softfp/libc_nano.a(lib_a-reent.o)
 .bss           0x0000000000000000        0x0 /home/andy/code/dbc/test/compilers/gcc-arm-none-eabi-7-2018-q2-update/bin/../lib/gcc/arm-none-eabi/7.3.1/../../../../arm-none-eabi/lib/thumb/v7e-m/fpv5/softfp/libc_nano.a(lib_a-reent.o)
 .text.cleanup_glue
                0x0000000000000000       0x1a /home/andy/code/dbc/test/compilers/gcc-arm-none-eabi-7-2018-q2-update/bin/../lib/gcc/arm-none-eabi/7.3.1/../../../../arm-none-eabi/lib/thumb/v7e-m/fpv5/softfp/libc_nano.a(lib_a-reent.o)
 .text._reclaim_reent
                0x0000000000000000       0xb8 /home/andy/code/dbc/test/compilers/gcc-arm-none-eabi-7-2018-q2-update/bin/../lib/gcc/arm-none-eabi/7.3.1/../../../../arm-none-eabi/lib/thumb/v7e-m/fpv5/softfp/libc_nano.a(lib_a-reent.o)
 .text          0x0000000000000000        0x0 /home/andy/code/dbc/test/compilers/gcc-arm-none-eabi-7-2018-q2-update/bin/../lib/gcc/arm-none-eabi/7.3.1/../../../../arm-none-eabi/lib/thumb/v7e-m/fpv5/softfp/libc_nano.a(lib_a-refill.o)
 .data          0x0000000000000000        0x0 /home/andy/code/dbc/test/compilers/gcc-arm-none-eabi-7-2018-q2-update/bin/../lib/gcc/arm-none-eabi/7.3.1/../../../../arm-none-eabi/lib/thumb/v7e-m/fpv5/softfp/libc_nano.a(lib_a-refill.o)
 .bss           0x0000000000000000        0x0 /home/andy/code/dbc/test/compilers/gcc-arm-none-eabi-7-2018-q2-update/bin/../lib/gcc/arm-none-eabi/7.3.1/../../../../arm-none-eabi/lib/thumb/v7e-m/fpv5/softfp/libc_nano.a(lib_a-refill.o)
 .text          0x0000000000000000        0x0 /home/andy/code/dbc/test/compilers/gcc-arm-none-eabi-7-2018-q2-update/bin/../lib/gcc/arm-none-eabi/7.3.1/../../../../arm-none-eabi/lib/thumb/v7e-m/fpv5/softfp/libc_nano.a(lib_a-rget.o)
 .data          0x0000000000000000        0x0 /home/andy/code/dbc/test/compilers/gcc-arm-none-eabi-7-2018-q2-update/bin/../lib/gcc/arm-none-eabi/7.3.1/../../../../arm-none-eabi/lib/thumb/v7e-m/fpv5/softfp/libc_nano.a(lib_a-rget.o)
 .bss           0x0000000000000000        0x0 /home/andy/code/dbc/test/compilers/gcc-arm-none-eabi-7-2018-q2-update/bin/../lib/gcc/arm-none-eabi/7.3.1/../../../../arm-none-eabi/lib/thumb/v7e-m/fpv5/softfp/libc_nano.a(lib_a-rget.o)
 .text.__srget_r
                0x0000000000000000       0x58 /home/andy/code/dbc/test/compilers/gcc-arm-none-eabi-7-2018-q2-update/bin/../lib/gcc/arm-none-eabi/7.3.1/../../../../arm-none-eabi/lib/thumb/v7e-m/fpv5/softfp/libc_nano.a(lib_a-rget.o)
 .text.__srget  0x0000000000000000       0x10 /home/andy/code/dbc/test/compilers/gcc-arm-none-eabi-7-2018-q2-update/bin/../lib/gcc/arm-none-eabi/7.3.1/../../../../arm-none-eabi/lib/thumb/v7e-m/fpv5/softfp/libc_nano.a(lib_a-rget.o)
 .debug_frame   0x0000000000000000       0x3c /home/andy/code/dbc/test/compilers/gcc-arm-none-eabi-7-2018-q2-update/bin/../lib/gcc/arm-none-eabi/7.3.1/../../../../arm-none-eabi/lib/thumb/v7e-m/fpv5/softfp/libc_nano.a(lib_a-rget.o)
 .ARM.attributes
                0x0000000000000000       0x30 /home/andy/code/dbc/test/compilers/gcc-arm-none-eabi-7-2018-q2-update/bin/../lib/gcc/arm-none-eabi/7.3.1/../../../../arm-none-eabi/lib/thumb/v7e-m/fpv5/softfp/libc_nano.a(lib_a-rget.o)
 .text          0x0000000000000000        0x0 /home/andy/code/dbc/test/compilers/gcc-arm-none-eabi-7-2018-q2-update/bin/../lib/gcc/arm-none-eabi/7.3.1/../../../../arm-none-eabi/lib/thumb/v7e-m/fpv5/softfp/libc_nano.a(lib_a-sbrkr.o)
 .data          0x0000000000000000        0x0 /home/andy/code/dbc/test/compilers/gcc-arm-none-eabi-7-2018-q2-update/bin/../lib/gcc/arm-none-eabi/7.3.1/../../../../arm-none-eabi/lib/thumb/v7e-m/fpv5/softfp/libc_nano.a(lib_a-sbrkr.o)
 .bss           0x0000000000000000        0x0 /home/andy/code/dbc/test/compilers/gcc-arm-none-eabi-7-2018-q2-update/bin/../lib/gcc/arm-none-eabi/7.3.1/../../../../arm-none-eabi/lib/thumb/v7e-m/fpv5/softfp/libc_nano.a(lib_a-sbrkr.o)
 .text          0x0000000000000000        0x0 /home/andy/code/dbc/test/compilers/gcc-arm-none-eabi-7-2018-q2-update/bin/../lib/gcc/arm-none-eabi/7.3.1/../../../../arm-none-eabi/lib/thumb/v7e-m/fpv5/softfp/libc_nano.a(lib_a-setbuf.o)
 .data          0x0000000000000000        0x0 /home/andy/code/dbc/test/compilers/gcc-arm-none-eabi-7-2018-q2-update/bin/../lib/gcc/arm-none-eabi/7.3.1/../../../../arm-none-eabi/lib/thumb/v7e-m/fpv5/softfp/libc_nano.a(lib_a-setbuf.o)
 .bss           0x0000000000000000        0x0 /home/andy/code/dbc/test/compilers/gcc-arm-none-eabi-7-2018-q2-update/bin/../lib/gcc/arm-none-eabi/7.3.1/../../../../arm-none-eabi/lib/thumb/v7e-m/fpv5/softfp/libc_nano.a(lib_a-setbuf.o)
 .text.setbuf   0x0000000000000000       0x10 /home/andy/code/dbc/test/compilers/gcc-arm-none-eabi-7-2018-q2-update/bin/../lib/gcc/arm-none-eabi/7.3.1/../../../../arm-none-eabi/lib/thumb/v7e-m/fpv5/softfp/libc_nano.a(lib_a-setbuf.o)
 .debug_frame   0x0000000000000000       0x20 /home/andy/code/dbc/test/compilers/gcc-arm-none-eabi-7-2018-q2-update/bin/../lib/gcc/arm-none-eabi/7.3.1/../../../../arm-none-eabi/lib/thumb/v7e-m/fpv5/softfp/libc_nano.a(lib_a-setbuf.o)
 .ARM.attributes
                0x0000000000000000       0x30 /home/andy/code/dbc/test/compilers/gcc-arm-none-eabi-7-2018-q2-update/bin/../lib/gcc/arm-none-eabi/7.3.1/../../../../arm-none-eabi/lib/thumb/v7e-m/fpv5/softfp/libc_nano.a(lib_a-setbuf.o)
 .text          0x0000000000000000        0x0 /home/andy/code/dbc/test/compilers/gcc-arm-none-eabi-7-2018-q2-update/bin/../lib/gcc/arm-none-eabi/7.3.1/../../../../arm-none-eabi/lib/thumb/v7e-m/fpv5/softfp/libc_nano.a(lib_a-setvbuf.o)
 .data          0x0000000000000000        0x0 /home/andy/code/dbc/test/compilers/gcc-arm-none-eabi-7-2018-q2-update/bin/../lib/gcc/arm-none-eabi/7.3.1/../../../../arm-none-eabi/lib/thumb/v7e-m/fpv5/softfp/libc_nano.a(lib_a-setvbuf.o)
 .bss           0x0000000000000000        0x0 /home/andy/code/dbc/test/compilers/gcc-arm-none-eabi-7-2018-q2-update/bin/../lib/gcc/arm-none-eabi/7.3.1/../../../../arm-none-eabi/lib/thumb/v7e-m/fpv5/softfp/libc_nano.a(lib_a-setvbuf.o)
 .text.setvbuf  0x0000000000000000      0x15c /home/andy/code/dbc/test/compilers/gcc-arm-none-eabi-7-2018-q2-update/bin/../lib/gcc/arm-none-eabi/7.3.1/../../../../arm-none-eabi/lib/thumb/v7e-m/fpv5/softfp/libc_nano.a(lib_a-setvbuf.o)
 .debug_frame   0x0000000000000000       0x38 /home/andy/code/dbc/test/compilers/gcc-arm-none-eabi-7-2018-q2-update/bin/../lib/gcc/arm-none-eabi/7.3.1/../../../../arm-none-eabi/lib/thumb/v7e-m/fpv5/softfp/libc_nano.a(lib_a-setvbuf.o)
 .ARM.attributes
                0x0000000000000000       0x30 /home/andy/code/dbc/test/compilers/gcc-arm-none-eabi-7-2018-q2-update/bin/../lib/gcc/arm-none-eabi/7.3.1/../../../../arm-none-eabi/lib/thumb/v7e-m/fpv5/softfp/libc_nano.a(lib_a-setvbuf.o)
 .text          0x0000000000000000        0x0 /home/andy/code/dbc/test/compilers/gcc-arm-none-eabi-7-2018-q2-update/bin/../lib/gcc/arm-none-eabi/7.3.1/../../../../arm-none-eabi/lib/thumb/v7e-m/fpv5/softfp/libc_nano.a(lib_a-stdio.o)
 .data          0x0000000000000000        0x0 /home/andy/code/dbc/test/compilers/gcc-arm-none-eabi-7-2018-q2-update/bin/../lib/gcc/arm-none-eabi/7.3.1/../../../../arm-none-eabi/lib/thumb/v7e-m/fpv5/softfp/libc_nano.a(lib_a-stdio.o)
 .bss           0x0000000000000000        0x0 /home/andy/code/dbc/test/compilers/gcc-arm-none-eabi-7-2018-q2-update/bin/../lib/gcc/arm-none-eabi/7.3.1/../../../../arm-none-eabi/lib/thumb/v7e-m/fpv5/softfp/libc_nano.a(lib_a-stdio.o)
 .text          0x0000000000000000        0x0 /home/andy/code/dbc/test/compilers/gcc-arm-none-eabi-7-2018-q2-update/bin/../lib/gcc/arm-none-eabi/7.3.1/../../../../arm-none-eabi/lib/thumb/v7e-m/fpv5/softfp/libc_nano.a(lib_a-tzcalc_limits.o)
 .data          0x0000000000000000        0x0 /home/andy/code/dbc/test/compilers/gcc-arm-none-eabi-7-2018-q2-update/bin/../lib/gcc/arm-none-eabi/7.3.1/../../../../arm-none-eabi/lib/thumb/v7e-m/fpv5/softfp/libc_nano.a(lib_a-tzcalc_limits.o)
 .bss           0x0000000000000000        0x0 /home/andy/code/dbc/test/compilers/gcc-arm-none-eabi-7-2018-q2-update/bin/../lib/gcc/arm-none-eabi/7.3.1/../../../../arm-none-eabi/lib/thumb/v7e-m/fpv5/softfp/libc_nano.a(lib_a-tzcalc_limits.o)
 .text          0x0000000000000000        0x0 /home/andy/code/dbc/test/compilers/gcc-arm-none-eabi-7-2018-q2-update/bin/../lib/gcc/arm-none-eabi/7.3.1/../../../../arm-none-eabi/lib/thumb/v7e-m/fpv5/softfp/libc_nano.a(lib_a-tzlock.o)
 .data          0x0000000000000000        0x0 /home/andy/code/dbc/test/compilers/gcc-arm-none-eabi-7-2018-q2-update/bin/../lib/gcc/arm-none-eabi/7.3.1/../../../../arm-none-eabi/lib/thumb/v7e-m/fpv5/softfp/libc_nano.a(lib_a-tzlock.o)
 .bss           0x0000000000000000        0x0 /home/andy/code/dbc/test/compilers/gcc-arm-none-eabi-7-2018-q2-update/bin/../lib/gcc/arm-none-eabi/7.3.1/../../../../arm-none-eabi/lib/thumb/v7e-m/fpv5/softfp/libc_nano.a(lib_a-tzlock.o)
 .text          0x0000000000000000        0x0 /home/andy/code/dbc/test/compilers/gcc-arm-none-eabi-7-2018-q2-update/bin/../lib/gcc/arm-none-eabi/7.3.1/../../../../arm-none-eabi/lib/thumb/v7e-m/fpv5/softfp/libc_nano.a(lib_a-tzset.o)
 .data          0x0000000000000000        0x0 /home/andy/code/dbc/test/compilers/gcc-arm-none-eabi-7-2018-q2-update/bin/../lib/gcc/arm-none-eabi/7.3.1/../../../../arm-none-eabi/lib/thumb/v7e-m/fpv5/softfp/libc_nano.a(lib_a-tzset.o)
 .bss           0x0000000000000000        0x0 /home/andy/code/dbc/test/compilers/gcc-arm-none-eabi-7-2018-q2-update/bin/../lib/gcc/arm-none-eabi/7.3.1/../../../../arm-none-eabi/lib/thumb/v7e-m/fpv5/softfp/libc_nano.a(lib_a-tzset.o)
 .text.tzset    0x0000000000000000       0x1c /home/andy/code/dbc/test/compilers/gcc-arm-none-eabi-7-2018-q2-update/bin/../lib/gcc/arm-none-eabi/7.3.1/../../../../arm-none-eabi/lib/thumb/v7e-m/fpv5/softfp/libc_nano.a(lib_a-tzset.o)
 .text          0x0000000000000000        0x0 /home/andy/code/dbc/test/compilers/gcc-arm-none-eabi-7-2018-q2-update/bin/../lib/gcc/arm-none-eabi/7.3.1/../../../../arm-none-eabi/lib/thumb/v7e-m/fpv5/softfp/libc_nano.a(lib_a-tzset_r.o)
 .data          0x0000000000000000        0x0 /home/andy/code/dbc/test/compilers/gcc-arm-none-eabi-7-2018-q2-update/bin/../lib/gcc/arm-none-eabi/7.3.1/../../../../arm-none-eabi/lib/thumb/v7e-m/fpv5/softfp/libc_nano.a(lib_a-tzset_r.o)
 .bss           0x0000000000000000        0x0 /home/andy/code/dbc/test/compilers/gcc-arm-none-eabi-7-2018-q2-update/bin/../lib/gcc/arm-none-eabi/7.3.1/../../../../arm-none-eabi/lib/thumb/v7e-m/fpv5/softfp/libc_nano.a(lib_a-tzset_r.o)
 .text._tzset_r
                0x0000000000000000       0x16 /home/andy/code/dbc/test/compilers/gcc-arm-none-eabi-7-2018-q2-update/bin/../lib/gcc/arm-none-eabi/7.3.1/../../../../arm-none-eabi/lib/thumb/v7e-m/fpv5/softfp/libc_nano.a(lib_a-tzset_r.o)
 .text          0x0000000000000000        0x0 /home/andy/code/dbc/test/compilers/gcc-arm-none-eabi-7-2018-q2-update/bin/../lib/gcc/arm-none-eabi/7.3.1/../../../../arm-none-eabi/lib/thumb/v7e-m/fpv5/softfp/libc_nano.a(lib_a-tzvars.o)
 .data          0x0000000000000000        0x0 /home/andy/code/dbc/test/compilers/gcc-arm-none-eabi-7-2018-q2-update/bin/../lib/gcc/arm-none-eabi/7.3.1/../../../../arm-none-eabi/lib/thumb/v7e-m/fpv5/softfp/libc_nano.a(lib_a-tzvars.o)
 .bss           0x0000000000000000        0x0 /home/andy/code/dbc/test/compilers/gcc-arm-none-eabi-7-2018-q2-update/bin/../lib/gcc/arm-none-eabi/7.3.1/../../../../arm-none-eabi/lib/thumb/v7e-m/fpv5/softfp/libc_nano.a(lib_a-tzvars.o)
 .text          0x0000000000000000        0x0 /home/andy/code/dbc/test/compilers/gcc-arm-none-eabi-7-2018-q2-update/bin/../lib/gcc/arm-none-eabi/7.3.1/../../../../arm-none-eabi/lib/thumb/v7e-m/fpv5/softfp/libc_nano.a(lib_a-writer.o)
 .data          0x0000000000000000        0x0 /home/andy/code/dbc/test/compilers/gcc-arm-none-eabi-7-2018-q2-update/bin/../lib/gcc/arm-none-eabi/7.3.1/../../../../arm-none-eabi/lib/thumb/v7e-m/fpv5/softfp/libc_nano.a(lib_a-writer.o)
 .bss           0x0000000000000000        0x0 /home/andy/code/dbc/test/compilers/gcc-arm-none-eabi-7-2018-q2-update/bin/../lib/gcc/arm-none-eabi/7.3.1/../../../../arm-none-eabi/lib/thumb/v7e-m/fpv5/softfp/libc_nano.a(lib_a-writer.o)
 .text          0x0000000000000000        0x0 /home/andy/code/dbc/test/compilers/gcc-arm-none-eabi-7-2018-q2-update/bin/../lib/gcc/arm-none-eabi/7.3.1/../../../../arm-none-eabi/lib/thumb/v7e-m/fpv5/softfp/libc_nano.a(lib_a-closer.o)
 .data          0x0000000000000000        0x0 /home/andy/code/dbc/test/compilers/gcc-arm-none-eabi-7-2018-q2-update/bin/../lib/gcc/arm-none-eabi/7.3.1/../../../../arm-none-eabi/lib/thumb/v7e-m/fpv5/softfp/libc_nano.a(lib_a-closer.o)
 .bss           0x0000000000000000        0x0 /home/andy/code/dbc/test/compilers/gcc-arm-none-eabi-7-2018-q2-update/bin/../lib/gcc/arm-none-eabi/7.3.1/../../../../arm-none-eabi/lib/thumb/v7e-m/fpv5/softfp/libc_nano.a(lib_a-closer.o)
 .text          0x0000000000000000        0x0 /home/andy/code/dbc/test/compilers/gcc-arm-none-eabi-7-2018-q2-update/bin/../lib/gcc/arm-none-eabi/7.3.1/../../../../arm-none-eabi/lib/thumb/v7e-m/fpv5/softfp/libc_nano.a(lib_a-flags.o)
 .data          0x0000000000000000        0x0 /home/andy/code/dbc/test/compilers/gcc-arm-none-eabi-7-2018-q2-update/bin/../lib/gcc/arm-none-eabi/7.3.1/../../../../arm-none-eabi/lib/thumb/v7e-m/fpv5/softfp/libc_nano.a(lib_a-flags.o)
 .bss           0x0000000000000000        0x0 /home/andy/code/dbc/test/compilers/gcc-arm-none-eabi-7-2018-q2-update/bin/../lib/gcc/arm-none-eabi/7.3.1/../../../../arm-none-eabi/lib/thumb/v7e-m/fpv5/softfp/libc_nano.a(lib_a-flags.o)
 .text          0x0000000000000000        0x0 /home/andy/code/dbc/test/compilers/gcc-arm-none-eabi-7-2018-q2-update/bin/../lib/gcc/arm-none-eabi/7.3.1/../../../../arm-none-eabi/lib/thumb/v7e-m/fpv5/softfp/libc_nano.a(lib_a-fstatr.o)
 .data          0x0000000000000000        0x0 /home/andy/code/dbc/test/compilers/gcc-arm-none-eabi-7-2018-q2-update/bin/../lib/gcc/arm-none-eabi/7.3.1/../../../../arm-none-eabi/lib/thumb/v7e-m/fpv5/softfp/libc_nano.a(lib_a-fstatr.o)
 .bss           0x0000000000000000        0x0 /home/andy/code/dbc/test/compilers/gcc-arm-none-eabi-7-2018-q2-update/bin/../lib/gcc/arm-none-eabi/7.3.1/../../../../arm-none-eabi/lib/thumb/v7e-m/fpv5/softfp/libc_nano.a(lib_a-fstatr.o)
 .text          0x0000000000000000        0x0 /home/andy/code/dbc/test/compilers/gcc-arm-none-eabi-7-2018-q2-update/bin/../lib/gcc/arm-none-eabi/7.3.1/../../../../arm-none-eabi/lib/thumb/v7e-m/fpv5/softfp/libc_nano.a(lib_a-getenv_r.o)
 .data          0x0000000000000000        0x0 /home/andy/code/dbc/test/compilers/gcc-arm-none-eabi-7-2018-q2-update/bin/../lib/gcc/arm-none-eabi/7.3.1/../../../../arm-none-eabi/lib/thumb/v7e-m/fpv5/softfp/libc_nano.a(lib_a-getenv_r.o)
 .bss           0x0000000000000000        0x0 /home/andy/code/dbc/test/compilers/gcc-arm-none-eabi-7-2018-q2-update/bin/../lib/gcc/arm-none-eabi/7.3.1/../../../../arm-none-eabi/lib/thumb/v7e-m/fpv5/softfp/libc_nano.a(lib_a-getenv_r.o)
 .text          0x0000000000000000        0x0 /home/andy/code/dbc/test/compilers/gcc-arm-none-eabi-7-2018-q2-update/bin/../lib/gcc/arm-none-eabi/7.3.1/../../../../arm-none-eabi/lib/thumb/v7e-m/fpv5/softfp/libc_nano.a(lib_a-gettzinfo.o)
 .data          0x0000000000000000        0x0 /home/andy/code/dbc/test/compilers/gcc-arm-none-eabi-7-2018-q2-update/bin/../lib/gcc/arm-none-eabi/7.3.1/../../../../arm-none-eabi/lib/thumb/v7e-m/fpv5/softfp/libc_nano.a(lib_a-gettzinfo.o)
 .bss           0x0000000000000000        0x0 /home/andy/code/dbc/test/compilers/gcc-arm-none-eabi-7-2018-q2-update/bin/../lib/gcc/arm-none-eabi/7.3.1/../../../../arm-none-eabi/lib/thumb/v7e-m/fpv5/softfp/libc_nano.a(lib_a-gettzinfo.o)
 .text          0x0000000000000000        0x0 /home/andy/code/dbc/test/compilers/gcc-arm-none-eabi-7-2018-q2-update/bin/../lib/gcc/arm-none-eabi/7.3.1/../../../../arm-none-eabi/lib/thumb/v7e-m/fpv5/softfp/libc_nano.a(lib_a-gmtime_r.o)
 .data          0x0000000000000000        0x0 /home/andy/code/dbc/test/compilers/gcc-arm-none-eabi-7-2018-q2-update/bin/../lib/gcc/arm-none-eabi/7.3.1/../../../../arm-none-eabi/lib/thumb/v7e-m/fpv5/softfp/libc_nano.a(lib_a-gmtime_r.o)
 .bss           0x0000000000000000        0x0 /home/andy/code/dbc/test/compilers/gcc-arm-none-eabi-7-2018-q2-update/bin/../lib/gcc/arm-none-eabi/7.3.1/../../../../arm-none-eabi/lib/thumb/v7e-m/fpv5/softfp/libc_nano.a(lib_a-gmtime_r.o)
 .text          0x0000000000000000        0x0 /home/andy/code/dbc/test/compilers/gcc-arm-none-eabi-7-2018-q2-update/bin/../lib/gcc/arm-none-eabi/7.3.1/../../../../arm-none-eabi/lib/thumb/v7e-m/fpv5/softfp/libc_nano.a(lib_a-isattyr.o)
 .data          0x0000000000000000        0x0 /home/andy/code/dbc/test/compilers/gcc-arm-none-eabi-7-2018-q2-update/bin/../lib/gcc/arm-none-eabi/7.3.1/../../../../arm-none-eabi/lib/thumb/v7e-m/fpv5/softfp/libc_nano.a(lib_a-isattyr.o)
 .bss           0x0000000000000000        0x0 /home/andy/code/dbc/test/compilers/gcc-arm-none-eabi-7-2018-q2-update/bin/../lib/gcc/arm-none-eabi/7.3.1/../../../../arm-none-eabi/lib/thumb/v7e-m/fpv5/softfp/libc_nano.a(lib_a-isattyr.o)
 .text          0x0000000000000000        0x0 /home/andy/code/dbc/test/compilers/gcc-arm-none-eabi-7-2018-q2-update/bin/../lib/gcc/arm-none-eabi/7.3.1/../../../../arm-none-eabi/lib/thumb/v7e-m/fpv5/softfp/libc_nano.a(lib_a-lseekr.o)
 .data          0x0000000000000000        0x0 /home/andy/code/dbc/test/compilers/gcc-arm-none-eabi-7-2018-q2-update/bin/../lib/gcc/arm-none-eabi/7.3.1/../../../../arm-none-eabi/lib/thumb/v7e-m/fpv5/softfp/libc_nano.a(lib_a-lseekr.o)
 .bss           0x0000000000000000        0x0 /home/andy/code/dbc/test/compilers/gcc-arm-none-eabi-7-2018-q2-update/bin/../lib/gcc/arm-none-eabi/7.3.1/../../../../arm-none-eabi/lib/thumb/v7e-m/fpv5/softfp/libc_nano.a(lib_a-lseekr.o)
 .text          0x0000000000000000        0x0 /home/andy/code/dbc/test/compilers/gcc-arm-none-eabi-7-2018-q2-update/bin/../lib/gcc/arm-none-eabi/7.3.1/../../../../arm-none-eabi/lib/thumb/v7e-m/fpv5/softfp/libc_nano.a(lib_a-nano-msizer.o)
 .data          0x0000000000000000        0x0 /home/andy/code/dbc/test/compilers/gcc-arm-none-eabi-7-2018-q2-update/bin/../lib/gcc/arm-none-eabi/7.3.1/../../../../arm-none-eabi/lib/thumb/v7e-m/fpv5/softfp/libc_nano.a(lib_a-nano-msizer.o)
 .bss           0x0000000000000000        0x0 /home/andy/code/dbc/test/compilers/gcc-arm-none-eabi-7-2018-q2-update/bin/../lib/gcc/arm-none-eabi/7.3.1/../../../../arm-none-eabi/lib/thumb/v7e-m/fpv5/softfp/libc_nano.a(lib_a-nano-msizer.o)
 .text          0x0000000000000000        0x0 /home/andy/code/dbc/test/compilers/gcc-arm-none-eabi-7-2018-q2-update/bin/../lib/gcc/arm-none-eabi/7.3.1/../../../../arm-none-eabi/lib/thumb/v7e-m/fpv5/softfp/libc_nano.a(lib_a-readr.o)
 .data          0x0000000000000000        0x0 /home/andy/code/dbc/test/compilers/gcc-arm-none-eabi-7-2018-q2-update/bin/../lib/gcc/arm-none-eabi/7.3.1/../../../../arm-none-eabi/lib/thumb/v7e-m/fpv5/softfp/libc_nano.a(lib_a-readr.o)
 .bss           0x0000000000000000        0x0 /home/andy/code/dbc/test/compilers/gcc-arm-none-eabi-7-2018-q2-update/bin/../lib/gcc/arm-none-eabi/7.3.1/../../../../arm-none-eabi/lib/thumb/v7e-m/fpv5/softfp/libc_nano.a(lib_a-readr.o)
 .text          0x0000000000000000        0x0 /home/andy/code/dbc/test/compilers/gcc-arm-none-eabi-7-2018-q2-update/bin/../lib/gcc/arm-none-eabi/7.3.1/../../../../arm-none-eabi/lib/thumb/v7e-m/fpv5/softfp/libc_nano.a(lib_a-sscanf.o)
 .data          0x0000000000000000        0x0 /home/andy/code/dbc/test/compilers/gcc-arm-none-eabi-7-2018-q2-update/bin/../lib/gcc/arm-none-eabi/7.3.1/../../../../arm-none-eabi/lib/thumb/v7e-m/fpv5/softfp/libc_nano.a(lib_a-sscanf.o)
 .bss           0x0000000000000000        0x0 /home/andy/code/dbc/test/compilers/gcc-arm-none-eabi-7-2018-q2-update/bin/../lib/gcc/arm-none-eabi/7.3.1/../../../../arm-none-eabi/lib/thumb/v7e-m/fpv5/softfp/libc_nano.a(lib_a-sscanf.o)
 .text._sscanf_r
                0x0000000000000000       0x54 /home/andy/code/dbc/test/compilers/gcc-arm-none-eabi-7-2018-q2-update/bin/../lib/gcc/arm-none-eabi/7.3.1/../../../../arm-none-eabi/lib/thumb/v7e-m/fpv5/softfp/libc_nano.a(lib_a-sscanf.o)
 .data          0x0000000000000000        0x0 /home/andy/code/dbc/test/compilers/gcc-arm-none-eabi-7-2018-q2-update/bin/../lib/gcc/arm-none-eabi/7.3.1/../../../../arm-none-eabi/lib/thumb/v7e-m/fpv5/softfp/libc_nano.a(lib_a-strcmp.o)
 .bss           0x0000000000000000        0x0 /home/andy/code/dbc/test/compilers/gcc-arm-none-eabi-7-2018-q2-update/bin/../lib/gcc/arm-none-eabi/7.3.1/../../../../arm-none-eabi/lib/thumb/v7e-m/fpv5/softfp/libc_nano.a(lib_a-strcmp.o)
 .text          0x0000000000000000        0x0 /home/andy/code/dbc/test/compilers/gcc-arm-none-eabi-7-2018-q2-update/bin/../lib/gcc/arm-none-eabi/7.3.1/../../../../arm-none-eabi/lib/thumb/v7e-m/fpv5/softfp/libc_nano.a(lib_a-strcpy.o)
 .data          0x0000000000000000        0x0 /home/andy/code/dbc/test/compilers/gcc-arm-none-eabi-7-2018-q2-update/bin/../lib/gcc/arm-none-eabi/7.3.1/../../../../arm-none-eabi/lib/thumb/v7e-m/fpv5/softfp/libc_nano.a(lib_a-strcpy.o)
 .bss           0x0000000000000000        0x0 /home/andy/code/dbc/test/compilers/gcc-arm-none-eabi-7-2018-q2-update/bin/../lib/gcc/arm-none-eabi/7.3.1/../../../../arm-none-eabi/lib/thumb/v7e-m/fpv5/softfp/libc_nano.a(lib_a-strcpy.o)
 .data          0x0000000000000000        0x0 /home/andy/code/dbc/test/compilers/gcc-arm-none-eabi-7-2018-q2-update/bin/../lib/gcc/arm-none-eabi/7.3.1/../../../../arm-none-eabi/lib/thumb/v7e-m/fpv5/softfp/libc_nano.a(lib_a-strlen.o)
 .bss           0x0000000000000000        0x0 /home/andy/code/dbc/test/compilers/gcc-arm-none-eabi-7-2018-q2-update/bin/../lib/gcc/arm-none-eabi/7.3.1/../../../../arm-none-eabi/lib/thumb/v7e-m/fpv5/softfp/libc_nano.a(lib_a-strlen.o)
 .text          0x0000000000000000        0x0 /home/andy/code/dbc/test/compilers/gcc-arm-none-eabi-7-2018-q2-update/bin/../lib/gcc/arm-none-eabi/7.3.1/../../../../arm-none-eabi/lib/thumb/v7e-m/fpv5/softfp/libc_nano.a(lib_a-strncmp.o)
 .data          0x0000000000000000        0x0 /home/andy/code/dbc/test/compilers/gcc-arm-none-eabi-7-2018-q2-update/bin/../lib/gcc/arm-none-eabi/7.3.1/../../../../arm-none-eabi/lib/thumb/v7e-m/fpv5/softfp/libc_nano.a(lib_a-strncmp.o)
 .bss           0x0000000000000000        0x0 /home/andy/code/dbc/test/compilers/gcc-arm-none-eabi-7-2018-q2-update/bin/../lib/gcc/arm-none-eabi/7.3.1/../../../../arm-none-eabi/lib/thumb/v7e-m/fpv5/softfp/libc_nano.a(lib_a-strncmp.o)
 .text          0x0000000000000000        0x0 /home/andy/code/dbc/test/compilers/gcc-arm-none-eabi-7-2018-q2-update/bin/../lib/gcc/arm-none-eabi/7.3.1/../../../../arm-none-eabi/lib/thumb/v7e-m/fpv5/softfp/libc_nano.a(lib_a-strtoul.o)
 .data          0x0000000000000000        0x0 /home/andy/code/dbc/test/compilers/gcc-arm-none-eabi-7-2018-q2-update/bin/../lib/gcc/arm-none-eabi/7.3.1/../../../../arm-none-eabi/lib/thumb/v7e-m/fpv5/softfp/libc_nano.a(lib_a-strtoul.o)
 .bss           0x0000000000000000        0x0 /home/andy/code/dbc/test/compilers/gcc-arm-none-eabi-7-2018-q2-update/bin/../lib/gcc/arm-none-eabi/7.3.1/../../../../arm-none-eabi/lib/thumb/v7e-m/fpv5/softfp/libc_nano.a(lib_a-strtoul.o)
 .text.strtoul_l
                0x0000000000000000       0x1c /home/andy/code/dbc/test/compilers/gcc-arm-none-eabi-7-2018-q2-update/bin/../lib/gcc/arm-none-eabi/7.3.1/../../../../arm-none-eabi/lib/thumb/v7e-m/fpv5/softfp/libc_nano.a(lib_a-strtoul.o)
 .text          0x0000000000000000        0x0 /home/andy/code/dbc/test/compilers/gcc-arm-none-eabi-7-2018-q2-update/bin/../lib/gcc/arm-none-eabi/7.3.1/../../../../arm-none-eabi/lib/thumb/v7e-m/fpv5/softfp/libc_nano.a(lib_a-environ.o)
 .data          0x0000000000000000        0x0 /home/andy/code/dbc/test/compilers/gcc-arm-none-eabi-7-2018-q2-update/bin/../lib/gcc/arm-none-eabi/7.3.1/../../../../arm-none-eabi/lib/thumb/v7e-m/fpv5/softfp/libc_nano.a(lib_a-environ.o)
 .bss           0x0000000000000000        0x0 /home/andy/code/dbc/test/compilers/gcc-arm-none-eabi-7-2018-q2-update/bin/../lib/gcc/arm-none-eabi/7.3.1/../../../../arm-none-eabi/lib/thumb/v7e-m/fpv5/softfp/libc_nano.a(lib_a-environ.o)
 .text          0x0000000000000000        0x0 /home/andy/code/dbc/test/compilers/gcc-arm-none-eabi-7-2018-q2-update/bin/../lib/gcc/arm-none-eabi/7.3.1/../../../../arm-none-eabi/lib/thumb/v7e-m/fpv5/softfp/libc_nano.a(lib_a-locale.o)
 .data          0x0000000000000000        0x0 /home/andy/code/dbc/test/compilers/gcc-arm-none-eabi-7-2018-q2-update/bin/../lib/gcc/arm-none-eabi/7.3.1/../../../../arm-none-eabi/lib/thumb/v7e-m/fpv5/softfp/libc_nano.a(lib_a-locale.o)
 .bss           0x0000000000000000        0x0 /home/andy/code/dbc/test/compilers/gcc-arm-none-eabi-7-2018-q2-update/bin/../lib/gcc/arm-none-eabi/7.3.1/../../../../arm-none-eabi/lib/thumb/v7e-m/fpv5/softfp/libc_nano.a(lib_a-locale.o)
 .text._setlocale_r
                0x0000000000000000       0x38 /home/andy/code/dbc/test/compilers/gcc-arm-none-eabi-7-2018-q2-update/bin/../lib/gcc/arm-none-eabi/7.3.1/../../../../arm-none-eabi/lib/thumb/v7e-m/fpv5/softfp/libc_nano.a(lib_a-locale.o)
 .text.__locale_mb_cur_max
                0x0000000000000000       0x1c /home/andy/code/dbc/test/compilers/gcc-arm-none-eabi-7-2018-q2-update/bin/../lib/gcc/arm-none-eabi/7.3.1/../../../../arm-none-eabi/lib/thumb/v7e-m/fpv5/softfp/libc_nano.a(lib_a-locale.o)
 .text.setlocale
                0x0000000000000000       0x10 /home/andy/code/dbc/test/compilers/gcc-arm-none-eabi-7-2018-q2-update/bin/../lib/gcc/arm-none-eabi/7.3.1/../../../../arm-none-eabi/lib/thumb/v7e-m/fpv5/softfp/libc_nano.a(lib_a-locale.o)
 .bss._PathLocale
                0x0000000000000000        0x4 /home/andy/code/dbc/test/compilers/gcc-arm-none-eabi-7-2018-q2-update/bin/../lib/gcc/arm-none-eabi/7.3.1/../../../../arm-none-eabi/lib/thumb/v7e-m/fpv5/softfp/libc_nano.a(lib_a-locale.o)
 .text          0x0000000000000000        0x0 /home/andy/code/dbc/test/compilers/gcc-arm-none-eabi-7-2018-q2-update/bin/../lib/gcc/arm-none-eabi/7.3.1/../../../../arm-none-eabi/lib/thumb/v7e-m/fpv5/softfp/libc_nano.a(lib_a-mbtowc_r.o)
 .data          0x0000000000000000        0x0 /home/andy/code/dbc/test/compilers/gcc-arm-none-eabi-7-2018-q2-update/bin/../lib/gcc/arm-none-eabi/7.3.1/../../../../arm-none-eabi/lib/thumb/v7e-m/fpv5/softfp/libc_nano.a(lib_a-mbtowc_r.o)
 .bss           0x0000000000000000        0x0 /home/andy/code/dbc/test/compilers/gcc-arm-none-eabi-7-2018-q2-update/bin/../lib/gcc/arm-none-eabi/7.3.1/../../../../arm-none-eabi/lib/thumb/v7e-m/fpv5/softfp/libc_nano.a(lib_a-mbtowc_r.o)
 .text._mbtowc_r
                0x0000000000000000       0x24 /home/andy/code/dbc/test/compilers/gcc-arm-none-eabi-7-2018-q2-update/bin/../lib/gcc/arm-none-eabi/7.3.1/../../../../arm-none-eabi/lib/thumb/v7e-m/fpv5/softfp/libc_nano.a(lib_a-mbtowc_r.o)
 .text          0x0000000000000000        0x0 /home/andy/code/dbc/test/compilers/gcc-arm-none-eabi-7-2018-q2-update/bin/../lib/gcc/arm-none-eabi/7.3.1/../../../../arm-none-eabi/lib/thumb/v7e-m/fpv5/softfp/libc_nano.a(lib_a-nano-svfscanf.o)
 .data          0x0000000000000000        0x0 /home/andy/code/dbc/test/compilers/gcc-arm-none-eabi-7-2018-q2-update/bin/../lib/gcc/arm-none-eabi/7.3.1/../../../../arm-none-eabi/lib/thumb/v7e-m/fpv5/softfp/libc_nano.a(lib_a-nano-svfscanf.o)
 .bss           0x0000000000000000        0x0 /home/andy/code/dbc/test/compilers/gcc-arm-none-eabi-7-2018-q2-update/bin/../lib/gcc/arm-none-eabi/7.3.1/../../../../arm-none-eabi/lib/thumb/v7e-m/fpv5/softfp/libc_nano.a(lib_a-nano-svfscanf.o)
 .text          0x0000000000000000        0x0 /home/andy/code/dbc/test/compilers/gcc-arm-none-eabi-7-2018-q2-update/bin/../lib/gcc/arm-none-eabi/7.3.1/../../../../arm-none-eabi/lib/thumb/v7e-m/fpv5/softfp/libc_nano.a(lib_a-nano-vfscanf_i.o)
 .data          0x0000000000000000        0x0 /home/andy/code/dbc/test/compilers/gcc-arm-none-eabi-7-2018-q2-update/bin/../lib/gcc/arm-none-eabi/7.3.1/../../../../arm-none-eabi/lib/thumb/v7e-m/fpv5/softfp/libc_nano.a(lib_a-nano-vfscanf_i.o)
 .bss           0x0000000000000000        0x0 /home/andy/code/dbc/test/compilers/gcc-arm-none-eabi-7-2018-q2-update/bin/../lib/gcc/arm-none-eabi/7.3.1/../../../../arm-none-eabi/lib/thumb/v7e-m/fpv5/softfp/libc_nano.a(lib_a-nano-vfscanf_i.o)
 .text          0x0000000000000000        0x0 /home/andy/code/dbc/test/compilers/gcc-arm-none-eabi-7-2018-q2-update/bin/../lib/gcc/arm-none-eabi/7.3.1/../../../../arm-none-eabi/lib/thumb/v7e-m/fpv5/softfp/libc_nano.a(lib_a-sccl.o)
 .data          0x0000000000000000        0x0 /home/andy/code/dbc/test/compilers/gcc-arm-none-eabi-7-2018-q2-update/bin/../lib/gcc/arm-none-eabi/7.3.1/../../../../arm-none-eabi/lib/thumb/v7e-m/fpv5/softfp/libc_nano.a(lib_a-sccl.o)
 .bss           0x0000000000000000        0x0 /home/andy/code/dbc/test/compilers/gcc-arm-none-eabi-7-2018-q2-update/bin/../lib/gcc/arm-none-eabi/7.3.1/../../../../arm-none-eabi/lib/thumb/v7e-m/fpv5/softfp/libc_nano.a(lib_a-sccl.o)
 .text          0x0000000000000000        0x0 /home/andy/code/dbc/test/compilers/gcc-arm-none-eabi-7-2018-q2-update/bin/../lib/gcc/arm-none-eabi/7.3.1/../../../../arm-none-eabi/lib/thumb/v7e-m/fpv5/softfp/libc_nano.a(lib_a-strtol.o)
 .data          0x0000000000000000        0x0 /home/andy/code/dbc/test/compilers/gcc-arm-none-eabi-7-2018-q2-update/bin/../lib/gcc/arm-none-eabi/7.3.1/../../../../arm-none-eabi/lib/thumb/v7e-m/fpv5/softfp/libc_nano.a(lib_a-strtol.o)
 .bss           0x0000000000000000        0x0 /home/andy/code/dbc/test/compilers/gcc-arm-none-eabi-7-2018-q2-update/bin/../lib/gcc/arm-none-eabi/7.3.1/../../../../arm-none-eabi/lib/thumb/v7e-m/fpv5/softfp/libc_nano.a(lib_a-strtol.o)
 .text.strtol_l
                0x0000000000000000       0x1c /home/andy/code/dbc/test/compilers/gcc-arm-none-eabi-7-2018-q2-update/bin/../lib/gcc/arm-none-eabi/7.3.1/../../../../arm-none-eabi/lib/thumb/v7e-m/fpv5/softfp/libc_nano.a(lib_a-strtol.o)
 .text.strtol   0x0000000000000000       0x2c /home/andy/code/dbc/test/compilers/gcc-arm-none-eabi-7-2018-q2-update/bin/../lib/gcc/arm-none-eabi/7.3.1/../../../../arm-none-eabi/lib/thumb/v7e-m/fpv5/softfp/libc_nano.a(lib_a-strtol.o)
 .text          0x0000000000000000        0x0 /home/andy/code/dbc/test/compilers/gcc-arm-none-eabi-7-2018-q2-update/bin/../lib/gcc/arm-none-eabi/7.3.1/../../../../arm-none-eabi/lib/thumb/v7e-m/fpv5/softfp/libc_nano.a(lib_a-ungetc.o)
 .data          0x0000000000000000        0x0 /home/andy/code/dbc/test/compilers/gcc-arm-none-eabi-7-2018-q2-update/bin/../lib/gcc/arm-none-eabi/7.3.1/../../../../arm-none-eabi/lib/thumb/v7e-m/fpv5/softfp/libc_nano.a(lib_a-ungetc.o)
 .bss           0x0000000000000000        0x0 /home/andy/code/dbc/test/compilers/gcc-arm-none-eabi-7-2018-q2-update/bin/../lib/gcc/arm-none-eabi/7.3.1/../../../../arm-none-eabi/lib/thumb/v7e-m/fpv5/softfp/libc_nano.a(lib_a-ungetc.o)
 .text._ungetc_r
                0x0000000000000000       0xe4 /home/andy/code/dbc/test/compilers/gcc-arm-none-eabi-7-2018-q2-update/bin/../lib/gcc/arm-none-eabi/7.3.1/../../../../arm-none-eabi/lib/thumb/v7e-m/fpv5/softfp/libc_nano.a(lib_a-ungetc.o)
 .text.ungetc   0x0000000000000000       0x10 /home/andy/code/dbc/test/compilers/gcc-arm-none-eabi-7-2018-q2-update/bin/../lib/gcc/arm-none-eabi/7.3.1/../../../../arm-none-eabi/lib/thumb/v7e-m/fpv5/softfp/libc_nano.a(lib_a-ungetc.o)
 .text          0x0000000000000000        0x0 /home/andy/code/dbc/test/compilers/gcc-arm-none-eabi-7-2018-q2-update/bin/../lib/gcc/arm-none-eabi/7.3.1/../../../../arm-none-eabi/lib/thumb/v7e-m/fpv5/softfp/libc_nano.a(lib_a-wctomb_r.o)
 .data          0x0000000000000000        0x0 /home/andy/code/dbc/test/compilers/gcc-arm-none-eabi-7-2018-q2-update/bin/../lib/gcc/arm-none-eabi/7.3.1/../../../../arm-none-eabi/lib/thumb/v7e-m/fpv5/softfp/libc_nano.a(lib_a-wctomb_r.o)
 .bss           0x0000000000000000        0x0 /home/andy/code/dbc/test/compilers/gcc-arm-none-eabi-7-2018-q2-update/bin/../lib/gcc/arm-none-eabi/7.3.1/../../../../arm-none-eabi/lib/thumb/v7e-m/fpv5/softfp/libc_nano.a(lib_a-wctomb_r.o)
 .text._wctomb_r
                0x0000000000000000       0x24 /home/andy/code/dbc/test/compilers/gcc-arm-none-eabi-7-2018-q2-update/bin/../lib/gcc/arm-none-eabi/7.3.1/../../../../arm-none-eabi/lib/thumb/v7e-m/fpv5/softfp/libc_nano.a(lib_a-wctomb_r.o)
 .text          0x0000000000000000        0x0 /home/andy/code/dbc/test/compilers/gcc-arm-none-eabi-7-2018-q2-update/bin/../lib/gcc/arm-none-eabi/7.3.1/../../../../arm-none-eabi/lib/thumb/v7e-m/fpv5/softfp/libc_nano.a(lib_a-ctype_.o)
 .data          0x0000000000000000        0x0 /home/andy/code/dbc/test/compilers/gcc-arm-none-eabi-7-2018-q2-update/bin/../lib/gcc/arm-none-eabi/7.3.1/../../../../arm-none-eabi/lib/thumb/v7e-m/fpv5/softfp/libc_nano.a(lib_a-ctype_.o)
 .bss           0x0000000000000000        0x0 /home/andy/code/dbc/test/compilers/gcc-arm-none-eabi-7-2018-q2-update/bin/../lib/gcc/arm-none-eabi/7.3.1/../../../../arm-none-eabi/lib/thumb/v7e-m/fpv5/softfp/libc_nano.a(lib_a-ctype_.o)
 .data          0x0000000000000000        0x0 /home/andy/code/dbc/test/compilers/gcc-arm-none-eabi-7-2018-q2-update/bin/../lib/gcc/arm-none-eabi/7.3.1/thumb/v7e-m/fpv5/softfp/libgcc.a(_aeabi_ldivmod.o)
 .bss           0x0000000000000000        0x0 /home/andy/code/dbc/test/compilers/gcc-arm-none-eabi-7-2018-q2-update/bin/../lib/gcc/arm-none-eabi/7.3.1/thumb/v7e-m/fpv5/softfp/libgcc.a(_aeabi_ldivmod.o)
 .data          0x0000000000000000        0x0 /home/andy/code/dbc/test/compilers/gcc-arm-none-eabi-7-2018-q2-update/bin/../lib/gcc/arm-none-eabi/7.3.1/thumb/v7e-m/fpv5/softfp/libgcc.a(_udivmoddi4.o)
 .bss           0x0000000000000000        0x0 /home/andy/code/dbc/test/compilers/gcc-arm-none-eabi-7-2018-q2-update/bin/../lib/gcc/arm-none-eabi/7.3.1/thumb/v7e-m/fpv5/softfp/libgcc.a(_udivmoddi4.o)
 .ARM.extab     0x0000000000000000        0x0 /home/andy/code/dbc/test/compilers/gcc-arm-none-eabi-7-2018-q2-update/bin/../lib/gcc/arm-none-eabi/7.3.1/thumb/v7e-m/fpv5/softfp/libgcc.a(_udivmoddi4.o)
 .data          0x0000000000000000        0x0 /home/andy/code/dbc/test/compilers/gcc-arm-none-eabi-7-2018-q2-update/bin/../lib/gcc/arm-none-eabi/7.3.1/thumb/v7e-m/fpv5/softfp/libgcc.a(_dvmd_tls.o)
 .bss           0x0000000000000000        0x0 /home/andy/code/dbc/test/compilers/gcc-arm-none-eabi-7-2018-q2-update/bin/../lib/gcc/arm-none-eabi/7.3.1/thumb/v7e-m/fpv5/softfp/libgcc.a(_dvmd_tls.o)
 .text          0x0000000000000000        0x0 /home/andy/code/dbc/test/compilers/gcc-arm-none-eabi-7-2018-q2-update/bin/../lib/gcc/arm-none-eabi/7.3.1/thumb/v7e-m/fpv5/softfp/crtend.o
 .data          0x0000000000000000        0x0 /home/andy/code/dbc/test/compilers/gcc-arm-none-eabi-7-2018-q2-update/bin/../lib/gcc/arm-none-eabi/7.3.1/thumb/v7e-m/fpv5/softfp/crtend.o
 .bss           0x0000000000000000        0x0 /home/andy/code/dbc/test/compilers/gcc-arm-none-eabi-7-2018-q2-update/bin/../lib/gcc/arm-none-eabi/7.3.1/thumb/v7e-m/fpv5/softfp/crtend.o
 .text          0x0000000000000000        0x0 /home/andy/code/dbc/test/compilers/gcc-arm-none-eabi-7-2018-q2-update/bin/../lib/gcc/arm-none-eabi/7.3.1/thumb/v7e-m/fpv5/softfp/crtn.o
 .data          0x0000000000000000        0x0 /home/andy/code/dbc/test/compilers/gcc-arm-none-eabi-7-2018-q2-update/bin/../lib/gcc/arm-none-eabi/7.3.1/thumb/v7e-m/fpv5/softfp/crtn.o
 .bss           0x0000000000000000        0x0 /home/andy/code/dbc/test/compilers/gcc-arm-none-eabi-7-2018-q2-update/bin/../lib/gcc/arm-none-eabi/7.3.1/thumb/v7e-m/fpv5/softfp/crtn.o
 .text          0x0000000000000000        0x0 /home/andy/code/dbc/test/compilers/gcc-arm-none-eabi-7-2018-q2-update/bin/../lib/gcc/arm-none-eabi/7.3.1/../../../../arm-none-eabi/lib/thumb/v7e-m/fpv5/softfp/libc_nano.a(lib_a-calloc.o)
 .data          0x0000000000000000        0x0 /home/andy/code/dbc/test/compilers/gcc-arm-none-eabi-7-2018-q2-update/bin/../lib/gcc/arm-none-eabi/7.3.1/../../../../arm-none-eabi/lib/thumb/v7e-m/fpv5/softfp/libc_nano.a(lib_a-calloc.o)
 .bss           0x0000000000000000        0x0 /home/andy/code/dbc/test/compilers/gcc-arm-none-eabi-7-2018-q2-update/bin/../lib/gcc/arm-none-eabi/7.3.1/../../../../arm-none-eabi/lib/thumb/v7e-m/fpv5/softfp/libc_nano.a(lib_a-calloc.o)
 .text          0x0000000000000000        0x0 /home/andy/code/dbc/test/compilers/gcc-arm-none-eabi-7-2018-q2-update/bin/../lib/gcc/arm-none-eabi/7.3.1/../../../../arm-none-eabi/lib/thumb/v7e-m/fpv5/softfp/libc_nano.a(lib_a-fputc.o)
 .data          0x0000000000000000        0x0 /home/andy/code/dbc/test/compilers/gcc-arm-none-eabi-7-2018-q2-update/bin/../lib/gcc/arm-none-eabi/7.3.1/../../../../arm-none-eabi/lib/thumb/v7e-m/fpv5/softfp/libc_nano.a(lib_a-fputc.o)
 .bss           0x0000000000000000        0x0 /home/andy/code/dbc/test/compilers/gcc-arm-none-eabi-7-2018-q2-update/bin/../lib/gcc/arm-none-eabi/7.3.1/../../../../arm-none-eabi/lib/thumb/v7e-m/fpv5/softfp/libc_nano.a(lib_a-fputc.o)
 .text          0x0000000000000000        0x0 /home/andy/code/dbc/test/compilers/gcc-arm-none-eabi-7-2018-q2-update/bin/../lib/gcc/arm-none-eabi/7.3.1/../../../../arm-none-eabi/lib/thumb/v7e-m/fpv5/softfp/libc_nano.a(lib_a-fwrite.o)
 .data          0x0000000000000000        0x0 /home/andy/code/dbc/test/compilers/gcc-arm-none-eabi-7-2018-q2-update/bin/../lib/gcc/arm-none-eabi/7.3.1/../../../../arm-none-eabi/lib/thumb/v7e-m/fpv5/softfp/libc_nano.a(lib_a-fwrite.o)
 .bss           0x0000000000000000        0x0 /home/andy/code/dbc/test/compilers/gcc-arm-none-eabi-7-2018-q2-update/bin/../lib/gcc/arm-none-eabi/7.3.1/../../../../arm-none-eabi/lib/thumb/v7e-m/fpv5/softfp/libc_nano.a(lib_a-fwrite.o)
 .text          0x0000000000000000        0x0 /home/andy/code/dbc/test/compilers/gcc-arm-none-eabi-7-2018-q2-update/bin/../lib/gcc/arm-none-eabi/7.3.1/../../../../arm-none-eabi/lib/thumb/v7e-m/fpv5/softfp/libc_nano.a(lib_a-memcmp.o)
 .data          0x0000000000000000        0x0 /home/andy/code/dbc/test/compilers/gcc-arm-none-eabi-7-2018-q2-update/bin/../lib/gcc/arm-none-eabi/7.3.1/../../../../arm-none-eabi/lib/thumb/v7e-m/fpv5/softfp/libc_nano.a(lib_a-memcmp.o)
 .bss           0x0000000000000000        0x0 /home/andy/code/dbc/test/compilers/gcc-arm-none-eabi-7-2018-q2-update/bin/../lib/gcc/arm-none-eabi/7.3.1/../../../../arm-none-eabi/lib/thumb/v7e-m/fpv5/softfp/libc_nano.a(lib_a-memcmp.o)
 .text          0x0000000000000000        0x0 /home/andy/code/dbc/test/compilers/gcc-arm-none-eabi-7-2018-q2-update/bin/../lib/gcc/arm-none-eabi/7.3.1/../../../../arm-none-eabi/lib/thumb/v7e-m/fpv5/softfp/libc_nano.a(lib_a-putc.o)
 .data          0x0000000000000000        0x0 /home/andy/code/dbc/test/compilers/gcc-arm-none-eabi-7-2018-q2-update/bin/../lib/gcc/arm-none-eabi/7.3.1/../../../../arm-none-eabi/lib/thumb/v7e-m/fpv5/softfp/libc_nano.a(lib_a-putc.o)
 .bss           0x0000000000000000        0x0 /home/andy/code/dbc/test/compilers/gcc-arm-none-eabi-7-2018-q2-update/bin/../lib/gcc/arm-none-eabi/7.3.1/../../../../arm-none-eabi/lib/thumb/v7e-m/fpv5/softfp/libc_nano.a(lib_a-putc.o)
 .text.putc     0x0000000000000000       0x10 /home/andy/code/dbc/test/compilers/gcc-arm-none-eabi-7-2018-q2-update/bin/../lib/gcc/arm-none-eabi/7.3.1/../../../../arm-none-eabi/lib/thumb/v7e-m/fpv5/softfp/libc_nano.a(lib_a-putc.o)
 .text          0x0000000000000000        0x0 /home/andy/code/dbc/test/compilers/gcc-arm-none-eabi-7-2018-q2-update/bin/../lib/gcc/arm-none-eabi/7.3.1/../../../../arm-none-eabi/lib/thumb/v7e-m/fpv5/softfp/libc_nano.a(lib_a-puts.o)
 .data          0x0000000000000000        0x0 /home/andy/code/dbc/test/compilers/gcc-arm-none-eabi-7-2018-q2-update/bin/../lib/gcc/arm-none-eabi/7.3.1/../../../../arm-none-eabi/lib/thumb/v7e-m/fpv5/softfp/libc_nano.a(lib_a-puts.o)
 .bss           0x0000000000000000        0x0 /home/andy/code/dbc/test/compilers/gcc-arm-none-eabi-7-2018-q2-update/bin/../lib/gcc/arm-none-eabi/7.3.1/../../../../arm-none-eabi/lib/thumb/v7e-m/fpv5/softfp/libc_nano.a(lib_a-puts.o)
 .text          0x0000000000000000        0x0 /home/andy/code/dbc/test/compilers/gcc-arm-none-eabi-7-2018-q2-update/bin/../lib/gcc/arm-none-eabi/7.3.1/../../../../arm-none-eabi/lib/thumb/v7e-m/fpv5/softfp/libc_nano.a(lib_a-strchr.o)
 .data          0x0000000000000000        0x0 /home/andy/code/dbc/test/compilers/gcc-arm-none-eabi-7-2018-q2-update/bin/../lib/gcc/arm-none-eabi/7.3.1/../../../../arm-none-eabi/lib/thumb/v7e-m/fpv5/softfp/libc_nano.a(lib_a-strchr.o)
 .bss           0x0000000000000000        0x0 /home/andy/code/dbc/test/compilers/gcc-arm-none-eabi-7-2018-q2-update/bin/../lib/gcc/arm-none-eabi/7.3.1/../../../../arm-none-eabi/lib/thumb/v7e-m/fpv5/softfp/libc_nano.a(lib_a-strchr.o)
 .text          0x0000000000000000        0x0 /home/andy/code/dbc/test/compilers/gcc-arm-none-eabi-7-2018-q2-update/bin/../lib/gcc/arm-none-eabi/7.3.1/../../../../arm-none-eabi/lib/thumb/v7e-m/fpv5/softfp/libc_nano.a(lib_a-strcspn.o)
 .data          0x0000000000000000        0x0 /home/andy/code/dbc/test/compilers/gcc-arm-none-eabi-7-2018-q2-update/bin/../lib/gcc/arm-none-eabi/7.3.1/../../../../arm-none-eabi/lib/thumb/v7e-m/fpv5/softfp/libc_nano.a(lib_a-strcspn.o)
 .bss           0x0000000000000000        0x0 /home/andy/code/dbc/test/compilers/gcc-arm-none-eabi-7-2018-q2-update/bin/../lib/gcc/arm-none-eabi/7.3.1/../../../../arm-none-eabi/lib/thumb/v7e-m/fpv5/softfp/libc_nano.a(lib_a-strcspn.o)
 .text          0x0000000000000000        0x0 /home/andy/code/dbc/test/compilers/gcc-arm-none-eabi-7-2018-q2-update/bin/../lib/gcc/arm-none-eabi/7.3.1/../../../../arm-none-eabi/lib/thumb/v7e-m/fpv5/softfp/libc_nano.a(lib_a-strncpy.o)
 .data          0x0000000000000000        0x0 /home/andy/code/dbc/test/compilers/gcc-arm-none-eabi-7-2018-q2-update/bin/../lib/gcc/arm-none-eabi/7.3.1/../../../../arm-none-eabi/lib/thumb/v7e-m/fpv5/softfp/libc_nano.a(lib_a-strncpy.o)
 .bss           0x0000000000000000        0x0 /home/andy/code/dbc/test/compilers/gcc-arm-none-eabi-7-2018-q2-update/bin/../lib/gcc/arm-none-eabi/7.3.1/../../../../arm-none-eabi/lib/thumb/v7e-m/fpv5/softfp/libc_nano.a(lib_a-strncpy.o)
 .text          0x0000000000000000        0x0 /home/andy/code/dbc/test/compilers/gcc-arm-none-eabi-7-2018-q2-update/bin/../lib/gcc/arm-none-eabi/7.3.1/../../../../arm-none-eabi/lib/thumb/v7e-m/fpv5/softfp/libc_nano.a(lib_a-strspn.o)
 .data          0x0000000000000000        0x0 /home/andy/code/dbc/test/compilers/gcc-arm-none-eabi-7-2018-q2-update/bin/../lib/gcc/arm-none-eabi/7.3.1/../../../../arm-none-eabi/lib/thumb/v7e-m/fpv5/softfp/libc_nano.a(lib_a-strspn.o)
 .bss           0x0000000000000000        0x0 /home/andy/code/dbc/test/compilers/gcc-arm-none-eabi-7-2018-q2-update/bin/../lib/gcc/arm-none-eabi/7.3.1/../../../../arm-none-eabi/lib/thumb/v7e-m/fpv5/softfp/libc_nano.a(lib_a-strspn.o)
 .text          0x0000000000000000        0x0 /home/andy/code/dbc/test/compilers/gcc-arm-none-eabi-7-2018-q2-update/bin/../lib/gcc/arm-none-eabi/7.3.1/../../../../arm-none-eabi/lib/thumb/v7e-m/fpv5/softfp/libc_nano.a(lib_a-wbuf.o)
 .data          0x0000000000000000        0x0 /home/andy/code/dbc/test/compilers/gcc-arm-none-eabi-7-2018-q2-update/bin/../lib/gcc/arm-none-eabi/7.3.1/../../../../arm-none-eabi/lib/thumb/v7e-m/fpv5/softfp/libc_nano.a(lib_a-wbuf.o)
 .bss           0x0000000000000000        0x0 /home/andy/code/dbc/test/compilers/gcc-arm-none-eabi-7-2018-q2-update/bin/../lib/gcc/arm-none-eabi/7.3.1/../../../../arm-none-eabi/lib/thumb/v7e-m/fpv5/softfp/libc_nano.a(lib_a-wbuf.o)
 .text.__swbuf  0x0000000000000000       0x10 /home/andy/code/dbc/test/compilers/gcc-arm-none-eabi-7-2018-q2-update/bin/../lib/gcc/arm-none-eabi/7.3.1/../../../../arm-none-eabi/lib/thumb/v7e-m/fpv5/softfp/libc_nano.a(lib_a-wbuf.o)
 .text          0x0000000000000000        0x0 /home/andy/code/dbc/test/compilers/gcc-arm-none-eabi-7-2018-q2-update/bin/../lib/gcc/arm-none-eabi/7.3.1/../../../../arm-none-eabi/lib/thumb/v7e-m/fpv5/softfp/libc_nano.a(lib_a-wsetup.o)
 .data          0x0000000000000000        0x0 /home/andy/code/dbc/test/compilers/gcc-arm-none-eabi-7-2018-q2-update/bin/../lib/gcc/arm-none-eabi/7.3.1/../../../../arm-none-eabi/lib/thumb/v7e-m/fpv5/softfp/libc_nano.a(lib_a-wsetup.o)
 .bss           0x0000000000000000        0x0 /home/andy/code/dbc/test/compilers/gcc-arm-none-eabi-7-2018-q2-update/bin/../lib/gcc/arm-none-eabi/7.3.1/../../../../arm-none-eabi/lib/thumb/v7e-m/fpv5/softfp/libc_nano.a(lib_a-wsetup.o)
 .data          0x0000000000000000        0x0 /home/andy/code/dbc/test/compilers/gcc-arm-none-eabi-7-2018-q2-update/bin/../lib/gcc/arm-none-eabi/7.3.1/thumb/v7e-m/fpv5/softfp/libgcc.a(_aeabi_uldivmod.o)
 .bss           0x0000000000000000        0x0 /home/andy/code/dbc/test/compilers/gcc-arm-none-eabi-7-2018-q2-update/bin/../lib/gcc/arm-none-eabi/7.3.1/thumb/v7e-m/fpv5/softfp/libgcc.a(_aeabi_uldivmod.o)
 .data          0x0000000000000000        0x0 /home/andy/code/dbc/test/compilers/gcc-arm-none-eabi-7-2018-q2-update/bin/../lib/gcc/arm-none-eabi/7.3.1/thumb/v7e-m/fpv5/softfp/libgcc.a(_popcountsi2.o)
 .bss           0x0000000000000000        0x0 /home/andy/code/dbc/test/compilers/gcc-arm-none-eabi-7-2018-q2-update/bin/../lib/gcc/arm-none-eabi/7.3.1/thumb/v7e-m/fpv5/softfp/libgcc.a(_popcountsi2.o)

Memory Configuration

Name             Origin             Length             Attributes
FLASH            0x0000000008000000 0x0000000000020000 xr
DTCMRAM          0x0000000020000298 0x000000000001fd68 xrw
RAM              0x0000000024000000 0x0000000000080000 xrw
RAM_D2           0x0000000030000000 0x0000000000048000 xrw
RAM_D3           0x0000000038000000 0x0000000000010000 xrw
ITCMRAM          0x0000000000000000 0x0000000000010000 xrw
*default*        0x0000000000000000 0xffffffffffffffff

Linker script and memory map

LOAD /home/andy/code/dbc/test/compilers/gcc-arm-none-eabi-7-2018-q2-update/bin/../lib/gcc/arm-none-eabi/7.3.1/thumb/v7e-m/fpv5/softfp/crti.o
LOAD /home/andy/code/dbc/test/compilers/gcc-arm-none-eabi-7-2018-q2-update/bin/../lib/gcc/arm-none-eabi/7.3.1/thumb/v7e-m/fpv5/softfp/crtbegin.o
LOAD /home/andy/code/dbc/test/compilers/gcc-arm-none-eabi-7-2018-q2-update/bin/../lib/gcc/arm-none-eabi/7.3.1/../../../../arm-none-eabi/lib/thumb/v7e-m/fpv5/softfp/crt0.o
LOAD BUILD/GIGA/GCC_ARM-CUSTOM/mbed-os/cmsis/CMSIS_5/CMSIS/RTOS2/RTX/Source/TOOLCHAIN_GCC/TARGET_RTOS_M4_M7/irq_cm4f.o
LOAD BUILD/GIGA/GCC_ARM-CUSTOM/mbed-os/targets/TARGET_STM/TARGET_STM32H7/TARGET_STM32H747xI/TARGET_STM32H747xI_CM7/TOOLCHAIN_GCC_ARM/startup_stm32h747xx.o
LOAD /tmp/ccPT7ssV.ltrans0.ltrans.o
LOAD /tmp/ccPT7ssV.ltrans1.ltrans.o
LOAD /tmp/ccPT7ssV.ltrans2.ltrans.o
LOAD /tmp/ccPT7ssV.ltrans3.ltrans.o
LOAD /tmp/ccPT7ssV.ltrans4.ltrans.o
LOAD BUILD/GIGA/GCC_ARM-CUSTOM/mbed-os/platform/source/TARGET_CORTEX_M/TOOLCHAIN_GCC/except.o
START GROUP
LOAD /home/andy/code/dbc/test/compilers/gcc-arm-none-eabi-7-2018-q2-update/bin/../lib/gcc/arm-none-eabi/7.3.1/../../../../arm-none-eabi/lib/thumb/v7e-m/fpv5/softfp/libstdc++_nano.a
LOAD /home/andy/code/dbc/test/compilers/gcc-arm-none-eabi-7-2018-q2-update/bin/../lib/gcc/arm-none-eabi/7.3.1/../../../../arm-none-eabi/lib/thumb/v7e-m/fpv5/softfp/libsupc++_nano.a
LOAD /home/andy/code/dbc/test/compilers/gcc-arm-none-eabi-7-2018-q2-update/bin/../lib/gcc/arm-none-eabi/7.3.1/../../../../arm-none-eabi/lib/thumb/v7e-m/fpv5/softfp/libm.a
LOAD /home/andy/code/dbc/test/compilers/gcc-arm-none-eabi-7-2018-q2-update/bin/../lib/gcc/arm-none-eabi/7.3.1/../../../../arm-none-eabi/lib/thumb/v7e-m/fpv5/softfp/libc_nano.a
LOAD /home/andy/code/dbc/test/compilers/gcc-arm-none-eabi-7-2018-q2-update/bin/../lib/gcc/arm-none-eabi/7.3.1/thumb/v7e-m/fpv5/softfp/libgcc.a
LOAD /home/andy/code/dbc/test/compilers/gcc-arm-none-eabi-7-2018-q2-update/bin/../lib/gcc/arm-none-eabi/7.3.1/../../../../arm-none-eabi/lib/thumb/v7e-m/fpv5/softfp/libnosys.a
END GROUP
LOAD /home/andy/code/dbc/test/compilers/gcc-arm-none-eabi-7-2018-q2-update/bin/../lib/gcc/arm-none-eabi/7.3.1/../../../../arm-none-eabi/lib/thumb/v7e-m/fpv5/softfp/libstdc++_nano.a
LOAD /home/andy/code/dbc/test/compilers/gcc-arm-none-eabi-7-2018-q2-update/bin/../lib/gcc/arm-none-eabi/7.3.1/../../../../arm-none-eabi/lib/thumb/v7e-m/fpv5/softfp/libsupc++_nano.a
LOAD /home/andy/code/dbc/test/compilers/gcc-arm-none-eabi-7-2018-q2-update/bin/../lib/gcc/arm-none-eabi/7.3.1/../../../../arm-none-eabi/lib/thumb/v7e-m/fpv5/softfp/libm.a
LOAD /home/andy/code/dbc/test/compilers/gcc-arm-none-eabi-7-2018-q2-update/bin/../lib/gcc/arm-none-eabi/7.3.1/../../../../arm-none-eabi/lib/thumb/v7e-m/fpv5/softfp/libc_nano.a
LOAD /home/andy/code/dbc/test/compilers/gcc-arm-none-eabi-7-2018-q2-update/bin/../lib/gcc/arm-none-eabi/7.3.1/thumb/v7e-m/fpv5/softfp/libgcc.a
LOAD /home/andy/code/dbc/test/compilers/gcc-arm-none-eabi-7-2018-q2-update/bin/../lib/gcc/arm-none-eabi/7.3.1/../../../../arm-none-eabi/lib/thumb/v7e-m/fpv5/softfp/libnosys.a
START GROUP
LOAD /home/andy/code/dbc/test/compilers/gcc-arm-none-eabi-7-2018-q2-update/bin/../lib/gcc/arm-none-eabi/7.3.1/thumb/v7e-m/fpv5/softfp/libgcc.a
LOAD /home/andy/code/dbc/test/compilers/gcc-arm-none-eabi-7-2018-q2-update/bin/../lib/gcc/arm-none-eabi/7.3.1/../../../../arm-none-eabi/lib/thumb/v7e-m/fpv5/softfp/libg_nano.a
LOAD /home/andy/code/dbc/test/compilers/gcc-arm-none-eabi-7-2018-q2-update/bin/../lib/gcc/arm-none-eabi/7.3.1/../../../../arm-none-eabi/lib/thumb/v7e-m/fpv5/softfp/libc_nano.a
END GROUP
START GROUP
LOAD /home/andy/code/dbc/test/compilers/gcc-arm-none-eabi-7-2018-q2-update/bin/../lib/gcc/arm-none-eabi/7.3.1/thumb/v7e-m/fpv5/softfp/libgcc.a
LOAD /home/andy/code/dbc/test/compilers/gcc-arm-none-eabi-7-2018-q2-update/bin/../lib/gcc/arm-none-eabi/7.3.1/../../../../arm-none-eabi/lib/thumb/v7e-m/fpv5/softfp/libc_nano.a
END GROUP
LOAD /home/andy/code/dbc/test/compilers/gcc-arm-none-eabi-7-2018-q2-update/bin/../lib/gcc/arm-none-eabi/7.3.1/thumb/v7e-m/fpv5/softfp/crtend.o
LOAD /home/andy/code/dbc/test/compilers/gcc-arm-none-eabi-7-2018-q2-update/bin/../lib/gcc/arm-none-eabi/7.3.1/thumb/v7e-m/fpv5/softfp/crtn.o
                0x000000000802f000                _ConfigStart = 0x802f000
                0x00000000080002f0                _IdentificationStart = 0x80002f0
                0x0000000008000300                _EncryptKeyStart = 0x8000300
                0x0000000008000400                _SigningKeyStart = 0x8000400

.text           0x0000000008000000    0x1f00b
 *(.isr_vector)
 .isr_vector    0x0000000008000000      0x298 BUILD/GIGA/GCC_ARM-CUSTOM/mbed-os/targets/TARGET_STM/TARGET_STM32H7/TARGET_STM32H747xI/TARGET_STM32H747xI_CM7/TOOLCHAIN_GCC_ARM/startup_stm32h747xx.o
                0x0000000008000000                g_pfnVectors
                0x00000000080002f0                . = ABSOLUTE (0x80002f0)
 *fill*         0x0000000008000298       0x58 
 *(.bootloader_identification)
 .bootloader_identification
                0x00000000080002f0       0x10 /tmp/ccPT7ssV.ltrans0.ltrans.o
                0x00000000080002f0                bootloader_identifier
 *(.signing_key)
 .signing_key   0x0000000008000300      0x100 /tmp/ccPT7ssV.ltrans1.ltrans.o
                0x0000000008000300                ecdsa_pub_key
 *(.encrypt_key)
 .encrypt_key   0x0000000008000400      0x100 /tmp/ccPT7ssV.ltrans1.ltrans.o
                0x0000000008000400                enc_priv_key
 *(.text*)
 .text          0x0000000008000500       0x40 /home/andy/code/dbc/test/compilers/gcc-arm-none-eabi-7-2018-q2-update/bin/../lib/gcc/arm-none-eabi/7.3.1/thumb/v7e-m/fpv5/softfp/crtbegin.o
 .text          0x0000000008000540       0x74 /home/andy/code/dbc/test/compilers/gcc-arm-none-eabi-7-2018-q2-update/bin/../lib/gcc/arm-none-eabi/7.3.1/../../../../arm-none-eabi/lib/thumb/v7e-m/fpv5/softfp/crt0.o
                0x0000000008000540                _start
                0x0000000008000540                _mainCRTStartup
 .text          0x00000000080005b4       0xc8 BUILD/GIGA/GCC_ARM-CUSTOM/mbed-os/cmsis/CMSIS_5/CMSIS/RTOS2/RTX/Source/TOOLCHAIN_GCC/TARGET_RTOS_M4_M7/irq_cm4f.o
                0x00000000080005b4                SVC_Handler
                0x000000000800064e                PendSV_Handler
                0x000000000800065e                SysTick_Handler
 .text.Reset_Handler
                0x000000000800067c       0x4c BUILD/GIGA/GCC_ARM-CUSTOM/mbed-os/targets/TARGET_STM/TARGET_STM32H7/TARGET_STM32H747xI/TARGET_STM32H747xI_CM7/TOOLCHAIN_GCC_ARM/startup_stm32h747xx.o
                0x000000000800067c                Reset_Handler
 .text.Default_Handler
                0x00000000080006c8        0x2 BUILD/GIGA/GCC_ARM-CUSTOM/mbed-os/targets/TARGET_STM/TARGET_STM32H7/TARGET_STM32H747xI/TARGET_STM32H747xI_CM7/TOOLCHAIN_GCC_ARM/startup_stm32h747xx.o
                0x00000000080006c8                LTDC_ER_IRQHandler
                0x00000000080006c8                DMA2_Stream5_IRQHandler
                0x00000000080006c8                FDCAN1_IT1_IRQHandler
                0x00000000080006c8                OTG_HS_WKUP_IRQHandler
                0x00000000080006c8                DFSDM1_FLT1_IRQHandler
                0x00000000080006c8                HRTIM1_TIMA_IRQHandler
                0x00000000080006c8                SWPMI1_IRQHandler
                0x00000000080006c8                EXTI1_IRQHandler
                0x00000000080006c8                TIM8_UP_TIM13_IRQHandler
                0x00000000080006c8                BDMA_Channel1_IRQHandler
                0x00000000080006c8                USART6_IRQHandler
                0x00000000080006c8                BDMA_Channel4_IRQHandler
                0x00000000080006c8                WWDG_RST_IRQHandler
                0x00000000080006c8                DMA2_Stream7_IRQHandler
                0x00000000080006c8                CRS_IRQHandler
                0x00000000080006c8                SAI2_IRQHandler
                0x00000000080006c8                ADC3_IRQHandler
                0x00000000080006c8                UART4_IRQHandler
                0x00000000080006c8                OTG_FS_WKUP_IRQHandler
                0x00000000080006c8                JPEG_IRQHandler
                0x00000000080006c8                TIM8_CC_IRQHandler
                0x00000000080006c8                ETH_IRQHandler
                0x00000000080006c8                SPI2_IRQHandler
                0x00000000080006c8                EXTI9_5_IRQHandler
                0x00000000080006c8                HRTIM1_TIME_IRQHandler
                0x00000000080006c8                SPI1_IRQHandler
                0x00000000080006c8                HRTIM1_TIMB_IRQHandler
                0x00000000080006c8                TIM5_IRQHandler
                0x00000000080006c8                TIM17_IRQHandler
                0x00000000080006c8                BDMA_Channel3_IRQHandler
                0x00000000080006c8                FDCAN2_IT0_IRQHandler
                0x00000000080006c8                ADC_IRQHandler
                0x00000000080006c8                BDMA_Channel5_IRQHandler
                0x00000000080006c8                I2C4_EV_IRQHandler
                0x00000000080006c8                BDMA_Channel7_IRQHandler
                0x00000000080006c8                LPTIM5_IRQHandler
                0x00000000080006c8                DMA1_Stream6_IRQHandler
                0x00000000080006c8                DMA1_Stream1_IRQHandler
                0x00000000080006c8                WWDG_IRQHandler
                0x00000000080006c8                WAKEUP_PIN_IRQHandler
                0x00000000080006c8                DMA2D_IRQHandler
                0x00000000080006c8                DMA2_Stream0_IRQHandler
                0x00000000080006c8                HSEM2_IRQHandler
                0x00000000080006c8                I2C3_EV_IRQHandler
                0x00000000080006c8                SPI4_IRQHandler
                0x00000000080006c8                DMA1_Stream2_IRQHandler
                0x00000000080006c8                RCC_IRQHandler
                0x00000000080006c8                I2C1_ER_IRQHandler
                0x00000000080006c8                HRTIM1_Master_IRQHandler
                0x00000000080006c8                SAI4_IRQHandler
                0x00000000080006c8                HOLD_CORE_IRQHandler
                0x00000000080006c8                DMA2_Stream3_IRQHandler
                0x00000000080006c8                BDMA_Channel0_IRQHandler
                0x00000000080006c8                HRTIM1_TIMC_IRQHandler
                0x00000000080006c8                OTG_HS_EP1_OUT_IRQHandler
                0x00000000080006c8                DMA2_Stream4_IRQHandler
                0x00000000080006c8                TIM1_UP_IRQHandler
                0x00000000080006c8                SAI1_IRQHandler
                0x00000000080006c8                I2C2_EV_IRQHandler
                0x00000000080006c8                CEC_IRQHandler
                0x00000000080006c8                OTG_FS_EP1_OUT_IRQHandler
                0x00000000080006c8                LPUART1_IRQHandler
                0x00000000080006c8                DMAMUX2_OVR_IRQHandler
                0x00000000080006c8                TIM3_IRQHandler
                0x00000000080006c8                SPI6_IRQHandler
                0x00000000080006c8                USART2_IRQHandler
                0x00000000080006c8                DMA1_Stream0_IRQHandler
                0x00000000080006c8                CM4_SEV_IRQHandler
                0x00000000080006c8                DMA1_Stream7_IRQHandler
                0x00000000080006c8                HardFault_Handler
                0x00000000080006c8                TIM6_DAC_IRQHandler
                0x00000000080006c8                DMA1_Stream4_IRQHandler
                0x00000000080006c8                SDMMC2_IRQHandler
                0x00000000080006c8                TIM8_TRG_COM_TIM14_IRQHandler
                0x00000000080006c8                LTDC_IRQHandler
                0x00000000080006c8                PVD_AVD_IRQHandler
                0x00000000080006c8                FMC_IRQHandler
                0x00000000080006c8                ECC_IRQHandler
                0x00000000080006c8                FLASH_IRQHandler
                0x00000000080006c8                DSI_IRQHandler
                0x00000000080006c8                QUADSPI_IRQHandler
                0x00000000080006c8                EXTI15_10_IRQHandler
                0x00000000080006c8                TIM8_BRK_TIM12_IRQHandler
                0x00000000080006c8                TIM1_BRK_IRQHandler
                0x00000000080006c8                BDMA_Channel2_IRQHandler
                0x00000000080006c8                USART1_IRQHandler
                0x00000000080006c8                RTC_WKUP_IRQHandler
                0x00000000080006c8                TIM2_IRQHandler
                0x00000000080006c8                I2C4_ER_IRQHandler
                0x00000000080006c8                BusFault_Handler
                0x00000000080006c8                TAMP_STAMP_IRQHandler
                0x00000000080006c8                DMA2_Stream6_IRQHandler
                0x00000000080006c8                LPTIM2_IRQHandler
                0x00000000080006c8                LPTIM4_IRQHandler
                0x00000000080006c8                DebugMon_Handler
                0x00000000080006c8                COMP1_IRQHandler
                0x00000000080006c8                DFSDM1_FLT2_IRQHandler
                0x00000000080006c8                SDMMC1_IRQHandler
                0x00000000080006c8                OTG_HS_EP1_IN_IRQHandler
                0x00000000080006c8                LPTIM3_IRQHandler
                0x00000000080006c8                Default_Handler
                0x00000000080006c8                FDCAN1_IT0_IRQHandler
                0x00000000080006c8                DMAMUX1_OVR_IRQHandler
                0x00000000080006c8                RNG_IRQHandler
                0x00000000080006c8                ETH_WKUP_IRQHandler
                0x00000000080006c8                EXTI2_IRQHandler
                0x00000000080006c8                OTG_FS_IRQHandler
                0x00000000080006c8                OTG_FS_EP1_IN_IRQHandler
                0x00000000080006c8                UART5_IRQHandler
                0x00000000080006c8                DMA1_Stream5_IRQHandler
                0x00000000080006c8                UART8_IRQHandler
                0x00000000080006c8                FDCAN_CAL_IRQHandler
                0x00000000080006c8                TIM4_IRQHandler
                0x00000000080006c8                USART3_IRQHandler
                0x00000000080006c8                UART7_IRQHandler
                0x00000000080006c8                DFSDM1_FLT3_IRQHandler
                0x00000000080006c8                I2C3_ER_IRQHandler
                0x00000000080006c8                NMI_Handler
                0x00000000080006c8                BDMA_Channel6_IRQHandler
                0x00000000080006c8                SAI3_IRQHandler
                0x00000000080006c8                TIM15_IRQHandler
                0x00000000080006c8                TIM16_IRQHandler
                0x00000000080006c8                HRTIM1_TIMD_IRQHandler
                0x00000000080006c8                EXTI3_IRQHandler
                0x00000000080006c8                I2C2_ER_IRQHandler
                0x00000000080006c8                SPDIF_RX_IRQHandler
                0x00000000080006c8                MDIOS_IRQHandler
                0x00000000080006c8                TIM1_TRG_COM_IRQHandler
                0x00000000080006c8                DMA2_Stream2_IRQHandler
                0x00000000080006c8                DMA2_Stream1_IRQHandler
                0x00000000080006c8                FPU_IRQHandler
                0x00000000080006c8                DCMI_IRQHandler
                0x00000000080006c8                FDCAN2_IT1_IRQHandler
                0x00000000080006c8                I2C1_EV_IRQHandler
                0x00000000080006c8                TIM1_CC_IRQHandler
                0x00000000080006c8                CM7_SEV_IRQHandler
                0x00000000080006c8                LPTIM1_IRQHandler
                0x00000000080006c8                SPI3_IRQHandler
                0x00000000080006c8                DFSDM1_FLT0_IRQHandler
                0x00000000080006c8                UsageFault_Handler
                0x00000000080006c8                OTG_HS_IRQHandler
                0x00000000080006c8                MDIOS_WKUP_IRQHandler
                0x00000000080006c8                DMA1_Stream3_IRQHandler
                0x00000000080006c8                SPI5_IRQHandler
                0x00000000080006c8                TIM7_IRQHandler
                0x00000000080006c8                MemManage_Handler
                0x00000000080006c8                EXTI0_IRQHandler
                0x00000000080006c8                RTC_Alarm_IRQHandler
                0x00000000080006c8                EXTI4_IRQHandler
                0x00000000080006c8                MDMA_IRQHandler
                0x00000000080006c8                HRTIM1_FLT_IRQHandler
 .text.mbedtls_asn1_get_len
                0x00000000080006ca       0x92 /tmp/ccPT7ssV.ltrans0.ltrans.o
 .text.rtos_event_pending
                0x000000000800075c       0x10 /tmp/ccPT7ssV.ltrans0.ltrans.o
 .text.osRtxIdleThread
                0x000000000800076c        0x8 /tmp/ccPT7ssV.ltrans0.ltrans.o
 .text.svcRtxThreadGetId
                0x0000000008000774        0xc /tmp/ccPT7ssV.ltrans0.ltrans.o
 .text.osRtxThreadBlock
                0x0000000008000780       0x30 /tmp/ccPT7ssV.ltrans0.ltrans.o
 .text.osRtxThreadRegPtr
                0x00000000080007b0       0x14 /tmp/ccPT7ssV.ltrans0.ltrans.o
 .text.osRtxThreadDelayRemove
                0x00000000080007c4       0x40 /tmp/ccPT7ssV.ltrans0.ltrans.o
 .text.osRtxThreadListRemove
                0x0000000008000804       0x14 /tmp/ccPT7ssV.ltrans0.ltrans.o
 .text.osRtxThreadListRoot
                0x0000000008000818        0xc /tmp/ccPT7ssV.ltrans0.ltrans.o
 .text.osRtxThreadListGet
                0x0000000008000824       0x12 /tmp/ccPT7ssV.ltrans0.ltrans.o
 *fill*         0x0000000008000836        0x2 
 .text.osRtxThreadWaitEnter
                0x0000000008000838       0x88 /tmp/ccPT7ssV.ltrans0.ltrans.o
 .text.osRtxThreadListPut
                0x00000000080008c0       0x24 /tmp/ccPT7ssV.ltrans0.ltrans.o
 .text.osRtxThreadReadyPut
                0x00000000080008e4       0x10 /tmp/ccPT7ssV.ltrans0.ltrans.o
 .text.osRtxThreadDispatch
                0x00000000080008f4       0x50 /tmp/ccPT7ssV.ltrans0.ltrans.o
 .text.osRtxThreadWaitExit
                0x0000000008000944       0x24 /tmp/ccPT7ssV.ltrans0.ltrans.o
 .text.osRtxThreadJoinWakeup
                0x0000000008000968       0x1e /tmp/ccPT7ssV.ltrans0.ltrans.o
 .text.osRtxThreadListSort
                0x0000000008000986       0x24 /tmp/ccPT7ssV.ltrans0.ltrans.o
 *fill*         0x00000000080009aa        0x2 
 .text.osRtxThreadDelayTick
                0x00000000080009ac       0x9c /tmp/ccPT7ssV.ltrans0.ltrans.o
 .text.atomic_chk32_any.lto_priv.387
                0x0000000008000a48       0x22 /tmp/ccPT7ssV.ltrans0.ltrans.o
 .text.atomic_chk32_all.lto_priv.389
                0x0000000008000a6a       0x26 /tmp/ccPT7ssV.ltrans0.ltrans.o
 .text.osRtxThreadPostProcess
                0x0000000008000a90       0x4a /tmp/ccPT7ssV.ltrans0.ltrans.o
 .text.atomic_dec16_nz.lto_priv.391
                0x0000000008000ada       0x1a /tmp/ccPT7ssV.ltrans0.ltrans.o
 .text.atomic_inc16_lim
                0x0000000008000af4       0x1a /tmp/ccPT7ssV.ltrans0.ltrans.o
 .text.atomic_inc16_lt.lto_priv.393
                0x0000000008000b0e       0x1e /tmp/ccPT7ssV.ltrans0.ltrans.o
 .text.svcRtxSemaphoreRelease
                0x0000000008000b2c       0x3c /tmp/ccPT7ssV.ltrans0.ltrans.o
 .text.osRtxSemaphorePostProcess
                0x0000000008000b68       0x24 /tmp/ccPT7ssV.ltrans0.ltrans.o
 .text.svcRtxMutexRelease
                0x0000000008000b8c       0xa8 /tmp/ccPT7ssV.ltrans0.ltrans.o
 .text.svcRtxMutexAcquire.lto_priv.296
                0x0000000008000c34       0x90 /tmp/ccPT7ssV.ltrans0.ltrans.o
                0x0000000008000c34                svcRtxMutexAcquire.lto_priv.296
 .text.osRtxMutexOwnerRelease
                0x0000000008000cc4       0x44 /tmp/ccPT7ssV.ltrans0.ltrans.o
 .text.atomic_inc32.lto_priv.395
                0x0000000008000d08       0x12 /tmp/ccPT7ssV.ltrans0.ltrans.o
 .text.MessageQueuePut
                0x0000000008000d1a       0x40 /tmp/ccPT7ssV.ltrans0.ltrans.o
 .text.osRtxMemoryPoolFree
                0x0000000008000d5a       0x48 /tmp/ccPT7ssV.ltrans0.ltrans.o
 .text.osRtxMemoryPoolAlloc
                0x0000000008000da2       0x2e /tmp/ccPT7ssV.ltrans0.ltrans.o
 .text.osRtxMemoryPoolInit
                0x0000000008000dd0       0x42 /tmp/ccPT7ssV.ltrans0.ltrans.o
 .text.osRtxMemoryFree
                0x0000000008000e12       0x46 /tmp/ccPT7ssV.ltrans0.ltrans.o
 .text.osRtxThreadDestroy
                0x0000000008000e58       0x6c /tmp/ccPT7ssV.ltrans0.ltrans.o
 .text.svcRtxThreadTerminate.lto_priv.355
                0x0000000008000ec4       0x8c /tmp/ccPT7ssV.ltrans0.ltrans.o
                0x0000000008000ec4                svcRtxThreadTerminate.lto_priv.355
 .text.svcRtxThreadExit
                0x0000000008000f50       0x44 /tmp/ccPT7ssV.ltrans0.ltrans.o
 .text.svcRtxSemaphoreDelete.lto_priv.354
                0x0000000008000f94       0x60 /tmp/ccPT7ssV.ltrans0.ltrans.o
                0x0000000008000f94                svcRtxSemaphoreDelete.lto_priv.354
 .text.svcRtxMutexDelete
                0x0000000008000ff4       0xa8 /tmp/ccPT7ssV.ltrans0.ltrans.o
 .text.osRtxMemoryAlloc
                0x000000000800109c       0x64 /tmp/ccPT7ssV.ltrans0.ltrans.o
 .text.svcRtxThreadNew
                0x0000000008001100      0x1b8 /tmp/ccPT7ssV.ltrans0.ltrans.o
 .text.svcRtxSemaphoreNew.lto_priv.294
                0x00000000080012b8       0x78 /tmp/ccPT7ssV.ltrans0.ltrans.o
                0x00000000080012b8                svcRtxSemaphoreNew.lto_priv.294
 .text.svcRtxMutexNew
                0x0000000008001330       0x6c /tmp/ccPT7ssV.ltrans0.ltrans.o
 .text.osRtxMemoryInit
                0x000000000800139c       0x32 /tmp/ccPT7ssV.ltrans0.ltrans.o
 *fill*         0x00000000080013ce        0x2 
 .text.svcRtxKernelGetTickCount.lto_priv.361
                0x00000000080013d0        0xc /tmp/ccPT7ssV.ltrans0.ltrans.o
                0x00000000080013d0                svcRtxKernelGetTickCount.lto_priv.361
 .text.svcRtxKernelInitialize
                0x00000000080013dc       0x7c /tmp/ccPT7ssV.ltrans0.ltrans.o
 .text.GetKernelSleepTime
                0x0000000008001458       0x20 /tmp/ccPT7ssV.ltrans0.ltrans.o
 .text.svcRtxEventFlagsNew.lto_priv.295
                0x0000000008001478       0x68 /tmp/ccPT7ssV.ltrans0.ltrans.o
                0x0000000008001478                svcRtxEventFlagsNew.lto_priv.295
 .text.svcRtxDelay.lto_priv.353
                0x00000000080014e0       0x1c /tmp/ccPT7ssV.ltrans0.ltrans.o
                0x00000000080014e0                svcRtxDelay.lto_priv.353
 .text._Z16getOTABinaryBasem
                0x00000000080014fc       0x30 /tmp/ccPT7ssV.ltrans0.ltrans.o
 .text.__NVIC_SystemReset.lto_priv.399
                0x000000000800152c       0x24 /tmp/ccPT7ssV.ltrans0.ltrans.o
 .text._ZN4mbed6detail8invoke_rIvRPFvvEJELi0EEET_OT0_DpOT1_
                0x0000000008001550        0x4 /tmp/ccPT7ssV.ltrans0.ltrans.o
 .text._ZN4mbed8CallbackIFvvEE11target_callIPS1_EEvPKNS_6detail12CallbackBaseE
                0x0000000008001554        0x4 /tmp/ccPT7ssV.ltrans0.ltrans.o
 .text.gpio_write
                0x0000000008001558       0x30 /tmp/ccPT7ssV.ltrans0.ltrans.o
 .text._ZL17led_swap_feedbackv
                0x0000000008001588       0x38 /tmp/ccPT7ssV.ltrans0.ltrans.o
 .text._ZNK4mbed15FileBlockDevice8get_typeEv
                0x00000000080015c0        0x8 /tmp/ccPT7ssV.ltrans0.ltrans.o
 .text._ZNK4mbed15FileBlockDevice4sizeEv
                0x00000000080015c8        0x6 /tmp/ccPT7ssV.ltrans0.ltrans.o
 .text._ZNK4mbed15FileBlockDevice14get_erase_sizeEy
                0x00000000080015ce        0x6 /tmp/ccPT7ssV.ltrans0.ltrans.o
 .text._ZNK4mbed15FileBlockDevice14get_erase_sizeEv
                0x00000000080015d4        0x6 /tmp/ccPT7ssV.ltrans0.ltrans.o
 .text._ZNK4mbed15FileBlockDevice16get_program_sizeEv
                0x00000000080015da        0x6 /tmp/ccPT7ssV.ltrans0.ltrans.o
 .text._ZNK4mbed15FileBlockDevice13get_read_sizeEv
                0x00000000080015e0        0x6 /tmp/ccPT7ssV.ltrans0.ltrans.o
 .text._ZNK4mbed15FileBlockDevice13is_valid_readEyy
                0x00000000080015e6       0x24 /tmp/ccPT7ssV.ltrans0.ltrans.o
 .text._ZN4mbed15FileBlockDevice4syncEv
                0x000000000800160a        0x4 /tmp/ccPT7ssV.ltrans0.ltrans.o
                0x000000000800160a                mbed::FileBlockDevice::sync()
 .text._ZN4mbed15FileBlockDeviceD2Ev
                0x000000000800160e        0x2 /tmp/ccPT7ssV.ltrans0.ltrans.o
 .text._ZN4mbed6detail8invoke_rIvRKPFvP9writeInfoEJRKS3_ELi0EEET_OT0_DpOT1_
                0x0000000008001610        0x6 /tmp/ccPT7ssV.ltrans0.ltrans.o
 .text._ZN4mbed6detail8invoke_rIvRKMN6events10EventQueueEFvvEJRKPS3_ELi0EEET_OT0_DpOT1_
                0x0000000008001616       0x1c /tmp/ccPT7ssV.ltrans0.ltrans.o
 .text._ZN6events10EventQueue13function_dtorIN4mbed8CallbackIFvvEEEEEvPv
                0x0000000008001632        0x2 /tmp/ccPT7ssV.ltrans0.ltrans.o
 .text._ZZN4mbed8CallbackIFvvEEC4IPFvP9writeInfoES5_Li0EEET_T0_ENKUlvE_clEv
                0x0000000008001634        0x6 /tmp/ccPT7ssV.ltrans0.ltrans.o
 .text._ZN4mbed6detail8invoke_rIvRZNS_8CallbackIFvvEEC4IPFvP9writeInfoES7_Li0EEET_T0_EUlvE_JELi0EEESA_OSB_DpOT1_
                0x000000000800163a        0x4 /tmp/ccPT7ssV.ltrans0.ltrans.o
 .text._ZN4mbed8CallbackIFvvEE11target_callIZNS2_C4IPFvP9writeInfoES6_Li0EEET_T0_EUlvE_EEvPKNS_6detail12CallbackBaseE
                0x000000000800163e        0x4 /tmp/ccPT7ssV.ltrans0.ltrans.o
 .text._ZZN4mbed8CallbackIFvvEEC4IPN6events10EventQueueEMS5_FvvELi0EEET_T0_ENKUlvE_clEv
                0x0000000008001642        0x8 /tmp/ccPT7ssV.ltrans0.ltrans.o
 .text._ZN4mbed6detail8invoke_rIvRZNS_8CallbackIFvvEEC4IPN6events10EventQueueEMS7_FvvELi0EEET_T0_EUlvE_JELi0EEESB_OSC_DpOT1_
                0x000000000800164a        0x4 /tmp/ccPT7ssV.ltrans0.ltrans.o
 .text._ZN4mbed8CallbackIFvvEE11target_callIZNS2_C4IPN6events10EventQueueEMS6_FvvELi0EEET_T0_EUlvE_EEvPKNS_6detail12CallbackBaseE
                0x000000000800164e        0x4 /tmp/ccPT7ssV.ltrans0.ltrans.o
 .text._Z18Flash_If_GetStatusmhPh
                0x0000000008001652        0xa /tmp/ccPT7ssV.ltrans0.ltrans.o
 .text._Z13Flash_If_ReadPhS_m
                0x000000000800165c       0x5c /tmp/ccPT7ssV.ltrans0.ltrans.o
 .text.utox8    0x00000000080016b8       0x24 /tmp/ccPT7ssV.ltrans0.ltrans.o
 .text.USBD_DFU_SerialStrDescriptor
                0x00000000080016dc       0x40 /tmp/ccPT7ssV.ltrans0.ltrans.o
 .text.USBD_DFU_LangIDStrDescriptor
                0x000000000800171c        0xc /tmp/ccPT7ssV.ltrans0.ltrans.o
 .text.USBD_DFU_DeviceDescriptor
                0x0000000008001728        0xc /tmp/ccPT7ssV.ltrans0.ltrans.o
 .text.USBD_GetString.part.3
                0x0000000008001734       0x36 /tmp/ccPT7ssV.ltrans0.ltrans.o
 *fill*         0x000000000800176a        0x2 
 .text.USBD_DFU_InterfaceStrDescriptor
                0x000000000800176c       0x1c /tmp/ccPT7ssV.ltrans0.ltrans.o
 .text.USBD_DFU_ConfigStrDescriptor
                0x0000000008001788       0x1c /tmp/ccPT7ssV.ltrans0.ltrans.o
 .text.USBD_DFU_ManufacturerStrDescriptor
                0x00000000080017a4       0x1c /tmp/ccPT7ssV.ltrans0.ltrans.o
 .text.USBD_DFU_ProductStrDescriptor
                0x00000000080017c0       0x1c /tmp/ccPT7ssV.ltrans0.ltrans.o
 .text.USBD_ClrClassConfig
                0x00000000080017dc        0xe /tmp/ccPT7ssV.ltrans0.ltrans.o
 .text.USBD_SetClassConfig
                0x00000000080017ea       0x16 /tmp/ccPT7ssV.ltrans0.ltrans.o
 .text._ZN4mbed6detail8invoke_rIvRKPFvP19_USBD_HandleTypeDefEJRKS3_ELi0EEET_OT0_DpOT1_
                0x0000000008001800        0x6 /tmp/ccPT7ssV.ltrans0.ltrans.o
 .text._ZZN4mbed8CallbackIFvvEEC4IPFvP19_USBD_HandleTypeDefES5_Li0EEET_T0_ENKUlvE_clEv
                0x0000000008001806        0x6 /tmp/ccPT7ssV.ltrans0.ltrans.o
 .text._ZN4mbed6detail8invoke_rIvRZNS_8CallbackIFvvEEC4IPFvP19_USBD_HandleTypeDefES7_Li0EEET_T0_EUlvE_JELi0EEESA_OSB_DpOT1_
                0x000000000800180c        0x4 /tmp/ccPT7ssV.ltrans0.ltrans.o
 .text._ZN4mbed8CallbackIFvvEE11target_callIZNS2_C4IPFvP19_USBD_HandleTypeDefES6_Li0EEET_T0_EUlvE_EEvPKNS_6detail12CallbackBaseE
                0x0000000008001810        0x4 /tmp/ccPT7ssV.ltrans0.ltrans.o
 .text._ZL25USBD_DFU_GetUsrStringDescP19_USBD_HandleTypeDefhPt
                0x0000000008001814       0x24 /tmp/ccPT7ssV.ltrans0.ltrans.o
 .text._ZL31USBD_DFU_GetDeviceQualifierDescPt
                0x0000000008001838        0xc /tmp/ccPT7ssV.ltrans0.ltrans.o
 .text._ZL15USBD_DFU_DataInP19_USBD_HandleTypeDefh
                0x0000000008001844        0x4 /tmp/ccPT7ssV.ltrans0.ltrans.o
 .text._ZL16USBD_DFU_DataOutP19_USBD_HandleTypeDefh
                0x0000000008001848        0x4 /tmp/ccPT7ssV.ltrans0.ltrans.o
 .text._ZL25USBD_DFU_IsoOutIncompleteP19_USBD_HandleTypeDefh
                0x000000000800184c        0x4 /tmp/ccPT7ssV.ltrans0.ltrans.o
 .text._ZL24USBD_DFU_IsoINIncompleteP19_USBD_HandleTypeDefh
                0x0000000008001850        0x4 /tmp/ccPT7ssV.ltrans0.ltrans.o
 .text._ZL20USBD_DFU_EP0_RxReadyP19_USBD_HandleTypeDef
                0x0000000008001854        0x4 /tmp/ccPT7ssV.ltrans0.ltrans.o
 .text._ZL12USBD_DFU_SOFP19_USBD_HandleTypeDef
                0x0000000008001858        0x4 /tmp/ccPT7ssV.ltrans0.ltrans.o
 .text._ZL19USBD_DFU_GetCfgDescPt
                0x000000000800185c        0xc /tmp/ccPT7ssV.ltrans0.ltrans.o
 .text._ZNK4mbed11BlockDevice14is_valid_eraseEyy
                0x0000000008001868       0x66 /tmp/ccPT7ssV.ltrans0.ltrans.o
 .text._ZNK4mbed11BlockDevice16is_valid_programEyy
                0x00000000080018ce       0x60 /tmp/ccPT7ssV.ltrans0.ltrans.o
                0x00000000080018ce                mbed::BlockDevice::is_valid_program(unsigned long long, unsigned long long) const
 .text._ZNK4mbed11BlockDevice13is_valid_readEyy
                0x000000000800192e       0x60 /tmp/ccPT7ssV.ltrans0.ltrans.o
                0x000000000800192e                mbed::BlockDevice::is_valid_read(unsigned long long, unsigned long long) const
 .text._ZN4mbed11BlockDevice4trimEyy
                0x000000000800198e        0x4 /tmp/ccPT7ssV.ltrans0.ltrans.o
                0x000000000800198e                mbed::BlockDevice::trim(unsigned long long, unsigned long long)
 *fill*         0x0000000008001992        0x2 
 .text._ZN4mbed8CallbackIFvvEE8generateIPS1_vEEvOT_
                0x0000000008001994       0x18 /tmp/ccPT7ssV.ltrans0.ltrans.o
 .text.svcRtxMessageQueueGet
                0x00000000080019ac      0x110 /tmp/ccPT7ssV.ltrans0.ltrans.o
 .text.osRtxMessageQueuePostProcess
                0x0000000008001abc       0xcc /tmp/ccPT7ssV.ltrans0.ltrans.o
 .text.svcRtxMessageQueuePut
                0x0000000008001b88       0xb4 /tmp/ccPT7ssV.ltrans0.ltrans.o
 .text._ZN4mbed15FileBlockDeviceD0Ev
                0x0000000008001c3c        0xc /tmp/ccPT7ssV.ltrans0.ltrans.o
 .text._ZL15USBD_DFU_DeInitP19_USBD_HandleTypeDefh
                0x0000000008001c48       0x3c /tmp/ccPT7ssV.ltrans0.ltrans.o
 .text.OS_Tick_Enable
                0x0000000008001c84       0x34 /tmp/ccPT7ssV.ltrans0.ltrans.o
 .text.svcRtxKernelResume
                0x0000000008001cb8       0x80 /tmp/ccPT7ssV.ltrans0.ltrans.o
 .text.svcRtxKernelSuspend
                0x0000000008001d38       0x54 /tmp/ccPT7ssV.ltrans0.ltrans.o
 .text.osRtxPostProcess
                0x0000000008001d8c       0x50 /tmp/ccPT7ssV.ltrans0.ltrans.o
 .text.osRtxTimerSetup
                0x0000000008001ddc       0x4c /tmp/ccPT7ssV.ltrans0.ltrans.o
 .text.svcRtxKernelStart
                0x0000000008001e28       0xc0 /tmp/ccPT7ssV.ltrans0.ltrans.o
 .text.RTCSetBKPRegister
                0x0000000008001ee8       0x38 /tmp/ccPT7ssV.ltrans0.ltrans.o
 .text.RTCGetBKPRegister
                0x0000000008001f20       0x38 /tmp/ccPT7ssV.ltrans0.ltrans.o
 .text._Z13delayed_writeP9writeInfo
                0x0000000008001f58       0x24 /tmp/ccPT7ssV.ltrans0.ltrans.o
                0x0000000008001f58                delayed_write(writeInfo*)
 .text._ZL13USBD_DFU_InitP19_USBD_HandleTypeDefh
                0x0000000008001f7c       0x58 /tmp/ccPT7ssV.ltrans0.ltrans.o
 .text._ZN4mbed15FileBlockDevice4readEPvyy
                0x0000000008001fd4       0x60 /tmp/ccPT7ssV.ltrans0.ltrans.o
 .text._Z14Flash_If_Erasem
                0x0000000008002034       0x6c /tmp/ccPT7ssV.ltrans0.ltrans.o
 .text.USBD_CtlSendData
                0x00000000080020a0       0x18 /tmp/ccPT7ssV.ltrans0.ltrans.o
 .text.USBD_CtlSendStatus
                0x00000000080020b8       0x18 /tmp/ccPT7ssV.ltrans0.ltrans.o
 .text.USBD_Stop
                0x00000000080020d0       0x68 /tmp/ccPT7ssV.ltrans0.ltrans.o
 .text._ZL6rebootP19_USBD_HandleTypeDef.lto_priv.297
                0x0000000008002138        0xa /tmp/ccPT7ssV.ltrans0.ltrans.o
                0x0000000008002138                reboot(_USBD_HandleTypeDef*) [clone .lto_priv.297]
 *fill*         0x0000000008002142        0x2 
 .text._ZL14USBD_DFU_SetupP19_USBD_HandleTypeDefP13usb_setup_req
                0x0000000008002144      0x3a8 /tmp/ccPT7ssV.ltrans0.ltrans.o
 .text._ZN4mbed15FileBlockDevice5eraseEyy
                0x00000000080024ec       0x90 /tmp/ccPT7ssV.ltrans0.ltrans.o
 .text._ZN4mbed15FileBlockDevice7programEPKvyy
                0x000000000800257c       0x60 /tmp/ccPT7ssV.ltrans0.ltrans.o
 .text._ZN4mbed15FileBlockDevice6deinitEv
                0x00000000080025dc        0xc /tmp/ccPT7ssV.ltrans0.ltrans.o
 .text._ZN4mbed15FileBlockDevice4initEv
                0x00000000080025e8       0x70 /tmp/ccPT7ssV.ltrans0.ltrans.o
 .text._ZNK4mbed8CallbackIFvvEE4callEv
                0x0000000008002658       0x14 /tmp/ccPT7ssV.ltrans0.ltrans.o
 .text._Z15Flash_If_DeInitv
                0x000000000800266c       0x64 /tmp/ccPT7ssV.ltrans0.ltrans.o
 .text._ZL20USBD_DFU_EP0_TxReadyP19_USBD_HandleTypeDef
                0x00000000080026d0      0x174 /tmp/ccPT7ssV.ltrans0.ltrans.o
 .text._ZL21led_swap_feedback_offv
                0x0000000008002844       0x48 /tmp/ccPT7ssV.ltrans0.ltrans.o
 .text.mbedtls_mpi_cmp_mpi
                0x000000000800288c       0x80 /tmp/ccPT7ssV.ltrans0.ltrans.o
                0x000000000800288c                mbedtls_mpi_cmp_mpi
 .text.mbedtls_mpi_cmp_int
                0x000000000800290c       0x2c /tmp/ccPT7ssV.ltrans0.ltrans.o
                0x000000000800290c                mbedtls_mpi_cmp_int
 .text.mbedtls_mpi_cmp_abs
                0x0000000008002938       0x62 /tmp/ccPT7ssV.ltrans0.ltrans.o
                0x0000000008002938                mbedtls_mpi_cmp_abs
 .text.mbedtls_mpi_write_binary
                0x000000000800299a       0x6a /tmp/ccPT7ssV.ltrans0.ltrans.o
                0x000000000800299a                mbedtls_mpi_write_binary
 .text.mpi_bigendian_to_host.lto_priv.381
                0x0000000008002a04       0x26 /tmp/ccPT7ssV.ltrans0.ltrans.o
                0x0000000008002a04                mpi_bigendian_to_host.lto_priv.381
 .text.mbedtls_mpi_bitlen
                0x0000000008002a2a       0x3e /tmp/ccPT7ssV.ltrans0.ltrans.o
                0x0000000008002a2a                mbedtls_mpi_bitlen
 .text.mbedtls_mpi_lsb
                0x0000000008002a68       0x34 /tmp/ccPT7ssV.ltrans0.ltrans.o
                0x0000000008002a68                mbedtls_mpi_lsb
 .text.mbedtls_mpi_get_bit
                0x0000000008002a9c       0x20 /tmp/ccPT7ssV.ltrans0.ltrans.o
                0x0000000008002a9c                mbedtls_mpi_get_bit
 .text.mbedtls_mpi_grow
                0x0000000008002abc       0x50 /tmp/ccPT7ssV.ltrans0.ltrans.o
                0x0000000008002abc                mbedtls_mpi_grow
 .text.mbedtls_mpi_shift_l
                0x0000000008002b0c       0x8e /tmp/ccPT7ssV.ltrans0.ltrans.o
                0x0000000008002b0c                mbedtls_mpi_shift_l
 .text.mbedtls_mpi_lset
                0x0000000008002b9a       0x28 /tmp/ccPT7ssV.ltrans0.ltrans.o
                0x0000000008002b9a                mbedtls_mpi_lset
 .text.mbedtls_mpi_shift_r
                0x0000000008002bc2       0x76 /tmp/ccPT7ssV.ltrans0.ltrans.o
                0x0000000008002bc2                mbedtls_mpi_shift_r
 .text.mbedtls_mpi_safe_cond_swap
                0x0000000008002c38       0x7c /tmp/ccPT7ssV.ltrans0.ltrans.o
                0x0000000008002c38                mbedtls_mpi_safe_cond_swap
 .text.mbedtls_mpi_safe_cond_assign
                0x0000000008002cb4       0x6c /tmp/ccPT7ssV.ltrans0.ltrans.o
                0x0000000008002cb4                mbedtls_mpi_safe_cond_assign
 .text.mbedtls_mpi_shrink
                0x0000000008002d20       0x78 /tmp/ccPT7ssV.ltrans0.ltrans.o
                0x0000000008002d20                mbedtls_mpi_shrink
 .text.mbedtls_mpi_free
                0x0000000008002d98       0x24 /tmp/ccPT7ssV.ltrans0.ltrans.o
                0x0000000008002d98                mbedtls_mpi_free
 .text.mbedtls_mpi_read_binary
                0x0000000008002dbc       0x6c /tmp/ccPT7ssV.ltrans0.ltrans.o
                0x0000000008002dbc                mbedtls_mpi_read_binary
 .text.mbedtls_mpi_copy
                0x0000000008002e28       0x62 /tmp/ccPT7ssV.ltrans0.ltrans.o
                0x0000000008002e28                mbedtls_mpi_copy
 .text.mbedtls_mpi_sub_abs
                0x0000000008002e8a       0xcc /tmp/ccPT7ssV.ltrans0.ltrans.o
                0x0000000008002e8a                mbedtls_mpi_sub_abs
 .text.mbedtls_mpi_add_abs
                0x0000000008002f56       0xc2 /tmp/ccPT7ssV.ltrans0.ltrans.o
                0x0000000008002f56                mbedtls_mpi_add_abs
 .text.mbedtls_asn1_get_tag
                0x0000000008003018       0x28 /tmp/ccPT7ssV.ltrans0.ltrans.o
                0x0000000008003018                mbedtls_asn1_get_tag
 .text.mbedtls_asn1_get_alg
                0x0000000008003040       0x9a /tmp/ccPT7ssV.ltrans0.ltrans.o
                0x0000000008003040                mbedtls_asn1_get_alg
 .text.mbedtls_asn1_get_mpi
                0x00000000080030da       0x26 /tmp/ccPT7ssV.ltrans0.ltrans.o
                0x00000000080030da                mbedtls_asn1_get_mpi
 .text.mbedtls_aes_crypt_ctr
                0x0000000008003100      0x3fc /tmp/ccPT7ssV.ltrans0.ltrans.o
                0x0000000008003100                mbedtls_aes_crypt_ctr
 .text.aes_gen_tables.lto_priv.331
                0x00000000080034fc      0x120 /tmp/ccPT7ssV.ltrans0.ltrans.o
                0x00000000080034fc                aes_gen_tables.lto_priv.331
 .text.__wrap_main
                0x000000000800361c        0x4 /tmp/ccPT7ssV.ltrans0.ltrans.o
                0x000000000800361c                __wrap_main
 .text.IsIrqMasked.lto_priv.307.lto_priv.343
                0x0000000008003620       0x16 /tmp/ccPT7ssV.ltrans0.ltrans.o
                0x0000000008003620                IsIrqMasked.lto_priv.367.lto_priv.368
                0x0000000008003620                IsIrqMasked.lto_priv.308.lto_priv.312
                0x0000000008003620                IsIrqMasked.lto_priv.310.lto_priv.311
                0x0000000008003620                IsIrqMasked.lto_priv.309.lto_priv.317
                0x0000000008003620                IsIrqMasked.lto_priv.366.lto_priv.369
                0x0000000008003620                IsIrqMasked.lto_priv.307.lto_priv.343
 *fill*         0x0000000008003636        0x2 
 .text.osThreadExit
                0x0000000008003638       0x3c /tmp/ccPT7ssV.ltrans0.ltrans.o
 .text.osRtxTimerThread
                0x0000000008003674       0x34 /tmp/ccPT7ssV.ltrans0.ltrans.o
 .text.osRtxTimerTick
                0x00000000080036a8       0xec /tmp/ccPT7ssV.ltrans0.ltrans.o
 .text.default_idle_hook
                0x0000000008003794      0x17c /tmp/ccPT7ssV.ltrans0.ltrans.o
 .text.software_init_hook
                0x0000000008003910      0x2dc /tmp/ccPT7ssV.ltrans0.ltrans.o
                0x0000000008003910                software_init_hook
 .text._Z14Flash_If_WritePhS_m
                0x0000000008003bec      0x218 /tmp/ccPT7ssV.ltrans0.ltrans.o
 .text.osRtxPendSV_Handler
                0x0000000008003e04       0x80 /tmp/ccPT7ssV.ltrans0.ltrans.o
                0x0000000008003e04                osRtxPendSV_Handler
 .text.osRtxTick_Handler
                0x0000000008003e84       0x8c /tmp/ccPT7ssV.ltrans0.ltrans.o
                0x0000000008003e84                osRtxTick_Handler
 .text.osSemaphoreRelease
                0x0000000008003f10       0x50 /tmp/ccPT7ssV.ltrans0.ltrans.o
                0x0000000008003f10                osSemaphoreRelease
 .text._Z13Flash_If_Initv
                0x0000000008003f60       0xf8 /tmp/ccPT7ssV.ltrans0.ltrans.o
 .text.osMutexDelete
                0x0000000008004058       0x28 /tmp/ccPT7ssV.ltrans0.ltrans.o
                0x0000000008004058                osMutexDelete
 .text._ZN16QSPIFBlockDeviceD2Ev
                0x0000000008004080       0x24 /tmp/ccPT7ssV.ltrans0.ltrans.o
 .text._ZN16QSPIFBlockDeviceD0Ev
                0x00000000080040a4       0x12 /tmp/ccPT7ssV.ltrans0.ltrans.o
 *fill*         0x00000000080040b6        0x2 
 .text.osMutexRelease
                0x00000000080040b8       0x28 /tmp/ccPT7ssV.ltrans0.ltrans.o
                0x00000000080040b8                osMutexRelease
 .text.osMutexNew
                0x00000000080040e0       0x24 /tmp/ccPT7ssV.ltrans0.ltrans.o
                0x00000000080040e0                osMutexNew
 .text.EventFlagsCheck.lto_priv.375
                0x0000000008004104       0x34 /tmp/ccPT7ssV.ltrans0.ltrans.o
                0x0000000008004104                EventFlagsCheck.lto_priv.375
 .text.svcRtxEventFlagsWait.lto_priv.371
                0x0000000008004138       0x50 /tmp/ccPT7ssV.ltrans0.ltrans.o
                0x0000000008004138                svcRtxEventFlagsWait.lto_priv.371
 .text.svcRtxEventFlagsSet
                0x0000000008004188       0x6a /tmp/ccPT7ssV.ltrans0.ltrans.o
 .text.osRtxEventFlagsPostProcess
                0x00000000080041f2       0x2c /tmp/ccPT7ssV.ltrans0.ltrans.o
 .text._ZN4mbed6detail12CallbackBase5clearEv
                0x000000000800421e        0xc /tmp/ccPT7ssV.ltrans0.ltrans.o
                0x000000000800421e                mbed::detail::CallbackBase::clear()
 .text._ZN4mbed8CallbackIFvvEEC2IPS1_Li0EEET_
                0x000000000800422a       0x1a /tmp/ccPT7ssV.ltrans0.ltrans.o
 .text._ZNK4mbed8CallbackIFvvEEclEv
                0x0000000008004244        0x4 /tmp/ccPT7ssV.ltrans0.ltrans.o
                0x0000000008004244                mbed::Callback<void ()>::operator()() const
 .text._ZN6events10EventQueue13function_callIN4mbed8CallbackIFvvEEEEEvPv
                0x0000000008004248        0x4 /tmp/ccPT7ssV.ltrans0.ltrans.o
 .text._ZN4mbed8CallbackIFvvEE8generateIZNS2_C4IPFvP9writeInfoES6_Li0EEET_T0_EUlvE_vEEvOS9_
                0x000000000800424c       0x18 /tmp/ccPT7ssV.ltrans0.ltrans.o
                0x000000000800424c                void mbed::Callback<void ()>::generate<mbed::Callback<void ()>::generate<void (*)(writeInfo*), writeInfo*, 0>(void (*)(writeInfo*), writeInfo*)::{lambda()#1}, void>(mbed::Callback<void ()>::generate<void (*)(writeInfo*), writeInfo*, 0>(void (*)(writeInfo*), writeInfo*)::{lambda()#1}&&)
 .text._ZN4mbed8CallbackIFvvEE8generateIZNS2_C4IPN6events10EventQueueEMS6_FvvELi0EEET_T0_EUlvE_vEEvOSA_
                0x0000000008004264       0x14 /tmp/ccPT7ssV.ltrans0.ltrans.o
                0x0000000008004264                void mbed::Callback<void ()>::generate<mbed::Callback<void ()>::generate<events::EventQueue*, void (events::EventQueue::*)(), 0>(events::EventQueue*, void (events::EventQueue::*)())::{lambda()#1}, void>(mbed::Callback<void ()>::generate<events::EventQueue*, void (events::EventQueue::*)(), 0>(events::EventQueue*, void (events::EventQueue::*)())::{lambda()#1}&&)
 .text.USBD_LL_StallEP
                0x0000000008004278       0x9a /tmp/ccPT7ssV.ltrans0.ltrans.o
                0x0000000008004278                USBD_LL_StallEP
 .text.USBD_LL_DataOutStage
                0x0000000008004312       0x78 /tmp/ccPT7ssV.ltrans0.ltrans.o
 *fill*         0x000000000800438a        0x2 
 .text._ZL9start_dfuv
                0x000000000800438c     0x12f4 /tmp/ccPT7ssV.ltrans0.ltrans.o
 .text._ZN4mbed8CallbackIFvvEE8generateIZNS2_C4IPFvP19_USBD_HandleTypeDefES6_Li0EEET_T0_EUlvE_vEEvOS9_
                0x0000000008005680       0x18 /tmp/ccPT7ssV.ltrans0.ltrans.o
                0x0000000008005680                void mbed::Callback<void ()>::generate<mbed::Callback<void ()>::generate<void (*)(_USBD_HandleTypeDef*), _USBD_HandleTypeDef*, 0>(void (*)(_USBD_HandleTypeDef*), _USBD_HandleTypeDef*)::{lambda()#1}, void>(mbed::Callback<void ()>::generate<void (*)(_USBD_HandleTypeDef*), _USBD_HandleTypeDef*, 0>(void (*)(_USBD_HandleTypeDef*), _USBD_HandleTypeDef*)::{lambda()#1}&&)
 .text.boot_empty_keys
                0x0000000008005698       0x34 /tmp/ccPT7ssV.ltrans0.ltrans.o
                0x0000000008005698                boot_empty_keys
 .text._ZN4mbed11BlockDevice20get_default_instanceEv
                0x00000000080056cc      0x1b8 /tmp/ccPT7ssV.ltrans0.ltrans.o
                0x00000000080056cc                mbed::BlockDevice::get_default_instance()
 .text.startup.main
                0x0000000008005884      0xe60 /tmp/ccPT7ssV.ltrans0.ltrans.o
                0x0000000008005884                main
 .text.mbed_start
                0x00000000080066e4       0x78 /tmp/ccPT7ssV.ltrans0.ltrans.o
 .text.startup._ZL14initBlockTablev.lto_priv.313
                0x000000000800675c      0x664 /tmp/ccPT7ssV.ltrans0.ltrans.o
                0x000000000800675c                initBlockTable() [clone .lto_priv.313]
 .text.startup._Z16get_secondary_bdv
                0x0000000008006dc0       0x30 /tmp/ccPT7ssV.ltrans0.ltrans.o
                0x0000000008006dc0                get_secondary_bd()
 .text.HAL_TIM_OC_Start.part.8.constprop.161
                0x0000000008006df0       0xac /tmp/ccPT7ssV.ltrans1.ltrans.o
 .text.flash_area_erased_val
                0x0000000008006e9c       0x18 /tmp/ccPT7ssV.ltrans1.ltrans.o
 .text.flash_area_write
                0x0000000008006eb4       0x28 /tmp/ccPT7ssV.ltrans1.ltrans.o
 .text.boot_write_enc_key
                0x0000000008006edc       0x22 /tmp/ccPT7ssV.ltrans1.ltrans.o
 *fill*         0x0000000008006efe        0x2 
 .text.us_ticker_clear_interrupt
                0x0000000008006f00       0x10 /tmp/ccPT7ssV.ltrans1.ltrans.o
                0x0000000008006f00                us_ticker_clear_interrupt
 .text.us_ticker_disable_interrupt
                0x0000000008006f10       0x14 /tmp/ccPT7ssV.ltrans1.ltrans.o
                0x0000000008006f10                us_ticker_disable_interrupt
 .text.us_ticker_fire_interrupt
                0x0000000008006f24       0x20 /tmp/ccPT7ssV.ltrans1.ltrans.o
                0x0000000008006f24                us_ticker_fire_interrupt
 .text.us_ticker_set_interrupt
                0x0000000008006f44       0x1c /tmp/ccPT7ssV.ltrans1.ltrans.o
                0x0000000008006f44                us_ticker_set_interrupt
 .text.us_ticker_read
                0x0000000008006f60        0xc /tmp/ccPT7ssV.ltrans1.ltrans.o
                0x0000000008006f60                us_ticker_read
 .text.us_ticker_init
                0x0000000008006f6c       0x20 /tmp/ccPT7ssV.ltrans1.ltrans.o
                0x0000000008006f6c                us_ticker_init
 .text.timer_irq_handler
                0x0000000008006f8c       0x2c /tmp/ccPT7ssV.ltrans1.ltrans.o
 .text.us_ticker_get_info
                0x0000000008006fb8        0x8 /tmp/ccPT7ssV.ltrans1.ltrans.o
                0x0000000008006fb8                us_ticker_get_info
 .text.configure_dualpad_switch
                0x0000000008006fc0       0x24 /tmp/ccPT7ssV.ltrans1.ltrans.o
 .text.stm_pin_PullConfig
                0x0000000008006fe4       0x50 /tmp/ccPT7ssV.ltrans1.ltrans.o
 .text.USB_EP0StartXfer
                0x0000000008007034       0xec /tmp/ccPT7ssV.ltrans1.ltrans.o
 .text.unlikely.HAL_RCCEx_GetPLL3ClockFreq
                0x0000000008007120      0x14c /tmp/ccPT7ssV.ltrans1.ltrans.o
 .text.unlikely.HAL_RCCEx_GetPLL2ClockFreq
                0x000000000800726c      0x14c /tmp/ccPT7ssV.ltrans1.ltrans.o
 .text._ZN4mbed8FileBaseC2EPKcNS_8PathTypeE.constprop.259
                0x00000000080073b8       0x40 /tmp/ccPT7ssV.ltrans1.ltrans.o
 .text._ZN4mbed8CallbackIFvvEEC2IPFvP19_USBD_HandleTypeDefES5_Li0EEET_T0_.constprop.238
                0x00000000080073f8       0x1c /tmp/ccPT7ssV.ltrans1.ltrans.o
 .text._ZN4mbed8CallbackIFvvEEC2IPN6events10EventQueueEMS5_FvvELi0EEET_T0_.constprop.171
                0x0000000008007414       0x2c /tmp/ccPT7ssV.ltrans1.ltrans.o
 .text._ZN4mbed8CallbackIFvvEEC2IPFvP9writeInfoES5_Li0EEET_T0_.constprop.168
                0x0000000008007440       0x1c /tmp/ccPT7ssV.ltrans1.ltrans.o
 .text.ecp_mul_comb.isra.16.constprop.141
                0x000000000800745c      0x440 /tmp/ccPT7ssV.ltrans1.ltrans.o
 .text.mbedtls_ecp_mul_restartable.part.20.constprop.140
                0x000000000800789c      0x374 /tmp/ccPT7ssV.ltrans1.ltrans.o
 .text.unlikely.mbedtls_ecp_mul_shortcuts.constprop.138
                0x0000000008007c10       0x7a /tmp/ccPT7ssV.ltrans1.ltrans.o
 .text.boot_encrypt.constprop.124
                0x0000000008007c8a       0x52 /tmp/ccPT7ssV.ltrans1.ltrans.o
 .text.asn1_get_tagged_int.constprop.112
                0x0000000008007cdc       0x64 /tmp/ccPT7ssV.ltrans1.ltrans.o
 .text.mbedtls_aes_setkey_enc.constprop.120
                0x0000000008007d40      0x1e4 /tmp/ccPT7ssV.ltrans1.ltrans.o
 .text._ZN4mbed8CallbackIFiyNS_20sfdp_cmd_addr_size_tEhhPvyEEC2IP16QSPIFBlockDeviceMS6_FiyS1_hhS2_yELi0EEET_T0_.constprop.16
                0x0000000008007f24       0x22 /tmp/ccPT7ssV.ltrans1.ltrans.o
 *fill*         0x0000000008007f46        0x2 
 .text.qspi_prepare_command
                0x0000000008007f48      0x168 /tmp/ccPT7ssV.ltrans1.ltrans.o
 .text.startup._GLOBAL__I_65535_0_bootutil_extra.o.53499
                0x00000000080080b0      0x2b8 /tmp/ccPT7ssV.ltrans1.ltrans.o
 .text.mbed_error.constprop.276
                0x0000000008008368       0x24 /tmp/ccPT7ssV.ltrans1.ltrans.o
                0x0000000008008368                mbed_error.constprop.276
 .text._ZN4mbed13FATFileSystemC2EPKcPNS_11BlockDeviceE.constprop.258
                0x000000000800838c       0x38 /tmp/ccPT7ssV.ltrans1.ltrans.o
                0x000000000800838c                mbed::FATFileSystem::FATFileSystem(char const*, mbed::BlockDevice*) [clone .constprop.258]
 .text._ZN4mbed16LittleFileSystemC2EPKcPNS_11BlockDeviceEmmmm.constprop.254
                0x00000000080083c4       0x5c /tmp/ccPT7ssV.ltrans1.ltrans.o
                0x00000000080083c4                mbed::LittleFileSystem::LittleFileSystem(char const*, mbed::BlockDevice*, unsigned long, unsigned long, unsigned long, unsigned long) [clone .constprop.254]
 .text.USBD_CtlError.constprop.250
                0x0000000008008420       0x16 /tmp/ccPT7ssV.ltrans1.ltrans.o
                0x0000000008008420                USBD_CtlError.constprop.250
 .text.HAL_PCD_EP_Transmit.constprop.249
                0x0000000008008436       0x2a /tmp/ccPT7ssV.ltrans1.ltrans.o
                0x0000000008008436                HAL_PCD_EP_Transmit.constprop.249
 .text.HAL_PCD_EP_Receive.constprop.247
                0x0000000008008460       0x30 /tmp/ccPT7ssV.ltrans1.ltrans.o
                0x0000000008008460                HAL_PCD_EP_Receive.constprop.247
 .text._ZN4mbed6detail12CallbackBaseC2EDn.constprop.245
                0x0000000008008490        0x6 /tmp/ccPT7ssV.ltrans1.ltrans.o
                0x0000000008008490                mbed::detail::CallbackBase::CallbackBase(decltype(nullptr)) [clone .constprop.245]
 .text._ZN4mbed8callbackI19_USBD_HandleTypeDefS1_vJEEENS_8CallbackIFT1_DpT2_EEEPFS3_PT_S5_EPT0_.constprop.237
                0x0000000008008496        0xc /tmp/ccPT7ssV.ltrans1.ltrans.o
                0x0000000008008496                mbed::Callback<void ()> mbed::callback<_USBD_HandleTypeDef, _USBD_HandleTypeDef, void>(void (*)(_USBD_HandleTypeDef*), _USBD_HandleTypeDef*) [clone .constprop.237]
 *fill*         0x00000000080084a2        0x2 
 .text.HAL_NVIC_SetPriority.constprop.230
                0x00000000080084a4       0x44 /tmp/ccPT7ssV.ltrans1.ltrans.o
                0x00000000080084a4                HAL_NVIC_SetPriority.constprop.230
 .text.flash_get_sector_size.constprop.209
                0x00000000080084e8       0x40 /tmp/ccPT7ssV.ltrans1.ltrans.o
                0x00000000080084e8                flash_get_sector_size.constprop.209
 .text.flash_get_size.constprop.206
                0x0000000008008528       0x24 /tmp/ccPT7ssV.ltrans1.ltrans.o
                0x0000000008008528                flash_get_size.constprop.206
 .text._ZN4mbed8callbackIN6events10EventQueueES2_vJEEENS_8CallbackIFT1_DpT2_EEEPT0_MT_FS4_S6_E.constprop.170
                0x000000000800854c       0x18 /tmp/ccPT7ssV.ltrans1.ltrans.o
                0x000000000800854c                mbed::Callback<void ()> mbed::callback<events::EventQueue, events::EventQueue, void>(events::EventQueue*, void (events::EventQueue::*)()) [clone .constprop.170]
 .text._ZN4mbed8callbackI9writeInfoS1_vJEEENS_8CallbackIFT1_DpT2_EEEPFS3_PT_S5_EPT0_.constprop.167
                0x0000000008008564        0xc /tmp/ccPT7ssV.ltrans1.ltrans.o
                0x0000000008008564                mbed::Callback<void ()> mbed::callback<writeInfo, writeInfo, void>(void (*)(writeInfo*), writeInfo*) [clone .constprop.167]
 .text.mbedtls_mpi_shift_l_mod.constprop.144
                0x0000000008008570       0x1e /tmp/ccPT7ssV.ltrans1.ltrans.o
                0x0000000008008570                mbedtls_mpi_shift_l_mod.constprop.144
 *fill*         0x000000000800858e        0x2 
 .text.mbedtls_md_setup.constprop.143
                0x0000000008008590       0x54 /tmp/ccPT7ssV.ltrans1.ltrans.o
                0x0000000008008590                mbedtls_md_setup.constprop.143
 .text.bootutil_hmac_sha256_set_key.constprop.116
                0x00000000080085e4       0x24 /tmp/ccPT7ssV.ltrans1.ltrans.o
 .text.core_util_atomic_decr_u32.constprop.59
                0x0000000008008608       0x12 /tmp/ccPT7ssV.ltrans1.ltrans.o
                0x0000000008008608                core_util_atomic_decr_u32.constprop.59
 .text.hmac_drbg_reseed_core.constprop.49
                0x000000000800861a       0x54 /tmp/ccPT7ssV.ltrans1.ltrans.o
                0x000000000800861a                hmac_drbg_reseed_core.constprop.49
 .text._ZN4mbed8CallbackIFvvEEC2EDn.constprop.46
                0x000000000800866e        0xc /tmp/ccPT7ssV.ltrans1.ltrans.o
                0x000000000800866e                mbed::Callback<void ()>::Callback(decltype(nullptr)) [clone .constprop.46]
 *fill*         0x000000000800867a        0x2 
 .text._ZN4mbed4QSPI16configure_formatE14qspi_bus_widthS1_17qspi_address_sizeS1_hS1_i.constprop.44
                0x000000000800867c       0x68 /tmp/ccPT7ssV.ltrans1.ltrans.o
                0x000000000800867c                mbed::QSPI::configure_format(qspi_bus_width, qspi_bus_width, qspi_address_size, qspi_bus_width, unsigned char, qspi_bus_width, int) [clone .constprop.44]
 .text.serial_readable.constprop.29
                0x00000000080086e4       0x28 /tmp/ccPT7ssV.ltrans1.ltrans.o
                0x00000000080086e4                serial_readable.constprop.29
 .text._ZN4mbed8callbackI16QSPIFBlockDeviceS1_iJyNS_20sfdp_cmd_addr_size_tEhhPvyEEENS_8CallbackIFT1_DpT2_EEEPT0_MT_FS5_S7_E.constprop.15
                0x000000000800870c       0x18 /tmp/ccPT7ssV.ltrans1.ltrans.o
                0x000000000800870c                mbed::Callback<int (unsigned long long, mbed::sfdp_cmd_addr_size_t, unsigned char, unsigned char, void*, unsigned long long)> mbed::callback<QSPIFBlockDevice, QSPIFBlockDevice, int, unsigned long long, mbed::sfdp_cmd_addr_size_t, unsigned char, unsigned char, void*, unsigned long long>(QSPIFBlockDevice*, int (QSPIFBlockDevice::*)(unsigned long long, mbed::sfdp_cmd_addr_size_t, unsigned char, unsigned char, void*, unsigned long long)) [clone .constprop.15]
 .text._ZL7dir_sdiP9FATFS_DIRm.constprop.11
                0x0000000008008724       0x6a /tmp/ccPT7ssV.ltrans1.ltrans.o
                0x0000000008008724                dir_sdi(FATFS_DIR*, unsigned long) [clone .constprop.11]
 .text._ZL8dir_readP9FATFS_DIRi.constprop.9
                0x000000000800878e       0x56 /tmp/ccPT7ssV.ltrans1.ltrans.o
                0x000000000800878e                dir_read(FATFS_DIR*, int) [clone .constprop.9]
 .text._ZN4mbed8CallbackIFvPKcEEC2IPS3_Li0EEET_.constprop.8
                0x00000000080087e4       0x1c /tmp/ccPT7ssV.ltrans1.ltrans.o
                0x00000000080087e4                mbed::Callback<void (char const*)>::Callback<void (*)(char const*), 0>(void (*)(char const*)) [clone .constprop.8]
 .text.lfs_cache_cmp.constprop.7
                0x0000000008008800       0x50 /tmp/ccPT7ssV.ltrans1.ltrans.o
                0x0000000008008800                lfs_cache_cmp.constprop.7
 .text.lfs_ctz_find.constprop.6
                0x0000000008008850       0x8a /tmp/ccPT7ssV.ltrans1.ltrans.o
                0x0000000008008850                lfs_ctz_find.constprop.6
 *fill*         0x00000000080088da        0x2 
 .text.flash_area_get_sectors
                0x00000000080088dc       0x6c /tmp/ccPT7ssV.ltrans1.ltrans.o
                0x00000000080088dc                flash_area_get_sectors
 .text.flash_area_align
                0x0000000008008948       0x18 /tmp/ccPT7ssV.ltrans1.ltrans.o
                0x0000000008008948                flash_area_align
 .text.boot_write_trailer
                0x0000000008008960       0x5c /tmp/ccPT7ssV.ltrans1.ltrans.o
 .text.boot_write_swap_info.constprop.218
                0x00000000080089bc       0x18 /tmp/ccPT7ssV.ltrans1.ltrans.o
                0x00000000080089bc                boot_write_swap_info.constprop.218
 .text.boot_write_image_ok
                0x00000000080089d4       0x18 /tmp/ccPT7ssV.ltrans1.ltrans.o
 .text.flash_area_erase
                0x00000000080089ec       0x20 /tmp/ccPT7ssV.ltrans1.ltrans.o
                0x00000000080089ec                flash_area_erase
 .text.swap_erase_trailer_sectors.constprop.107
                0x0000000008008a0c       0x58 /tmp/ccPT7ssV.ltrans1.ltrans.o
 .text.flash_area_read
                0x0000000008008a64       0x88 /tmp/ccPT7ssV.ltrans1.ltrans.o
                0x0000000008008a64                flash_area_read
 .text.bootutil_tlv_iter_begin.constprop.126
                0x0000000008008aec       0x92 /tmp/ccPT7ssV.ltrans1.ltrans.o
 *fill*         0x0000000008008b7e        0x2 
 .text.boot_copy_region.constprop.98
                0x0000000008008b80      0x130 /tmp/ccPT7ssV.ltrans1.ltrans.o
                0x0000000008008b80                boot_copy_region.constprop.98
 .text.bootutil_tlv_iter_next
                0x0000000008008cb0       0x94 /tmp/ccPT7ssV.ltrans1.ltrans.o
 .text.bootutil_img_validate.constprop.121
                0x0000000008008d44      0x5a0 /tmp/ccPT7ssV.ltrans1.ltrans.o
 .text.boot_enc_load.constprop.110
                0x00000000080092e4      0x444 /tmp/ccPT7ssV.ltrans1.ltrans.o
                0x00000000080092e4                boot_enc_load.constprop.110
 .text.flash_area_close
                0x0000000008009728       0x28 /tmp/ccPT7ssV.ltrans1.ltrans.o
                0x0000000008009728                flash_area_close
 .text.flash_area_open
                0x0000000008009750       0xa4 /tmp/ccPT7ssV.ltrans1.ltrans.o
                0x0000000008009750                flash_area_open
 .text.boot_check_header_erased.constprop.105
                0x00000000080097f4       0x48 /tmp/ccPT7ssV.ltrans1.ltrans.o
                0x00000000080097f4                boot_check_header_erased.constprop.105
 .text.boot_read_image_headers.constprop.102
                0x000000000800983c       0x68 /tmp/ccPT7ssV.ltrans1.ltrans.o
                0x000000000800983c                boot_read_image_headers.constprop.102
 .text.swap_set_copy_done.constprop.100
                0x00000000080098a4       0x36 /tmp/ccPT7ssV.ltrans1.ltrans.o
                0x00000000080098a4                swap_set_copy_done.constprop.100
 *fill*         0x00000000080098da        0x2 
 .text.boot_read_image_size.constprop.91
                0x00000000080098dc       0x90 /tmp/ccPT7ssV.ltrans1.ltrans.o
 .text.boot_find_status.isra.3
                0x000000000800996c       0x6c /tmp/ccPT7ssV.ltrans1.ltrans.o
 .text.boot_enc_set_key
                0x00000000080099d8       0x2a /tmp/ccPT7ssV.ltrans1.ltrans.o
                0x00000000080099d8                boot_enc_set_key
 *fill*         0x0000000008009a02        0x2 
 .text.boot_validate_slot.constprop.104
                0x0000000008009a04       0xfc /tmp/ccPT7ssV.ltrans1.ltrans.o
                0x0000000008009a04                boot_validate_slot.constprop.104
 .text.bootutil_buffer_is_erased.part.3
                0x0000000008009b00       0x22 /tmp/ccPT7ssV.ltrans1.ltrans.o
                0x0000000008009b00                bootutil_buffer_is_erased.part.3
 .text.boot_read_flag
                0x0000000008009b22       0x3a /tmp/ccPT7ssV.ltrans1.ltrans.o
 .text.boot_write_magic
                0x0000000008009b5c       0x44 /tmp/ccPT7ssV.ltrans1.ltrans.o
                0x0000000008009b5c                boot_write_magic
 .text.boot_read_swap_state
                0x0000000008009ba0       0xb4 /tmp/ccPT7ssV.ltrans1.ltrans.o
                0x0000000008009ba0                boot_read_swap_state
 .text.swap_set_image_ok.constprop.101
                0x0000000008009c54       0x3c /tmp/ccPT7ssV.ltrans1.ltrans.o
                0x0000000008009c54                swap_set_image_ok.constprop.101
 .text.boot_read_swap_state_by_id
                0x0000000008009c90       0x28 /tmp/ccPT7ssV.ltrans1.ltrans.o
                0x0000000008009c90                boot_read_swap_state_by_id
 .text.swap_status_init.constprop.97
                0x0000000008009cb8       0x5e /tmp/ccPT7ssV.ltrans1.ltrans.o
 .text.boot_magic_compatible_check
                0x0000000008009d16       0x1e /tmp/ccPT7ssV.ltrans1.ltrans.o
                0x0000000008009d16                boot_magic_compatible_check
 .text.boot_status_off
                0x0000000008009d34       0x16 /tmp/ccPT7ssV.ltrans1.ltrans.o
                0x0000000008009d34                boot_status_off
 *fill*         0x0000000008009d4a        0x2 
 .text.boot_write_status.constprop.99
                0x0000000008009d4c       0x7c /tmp/ccPT7ssV.ltrans1.ltrans.o
 .text.boot_swap_image.constprop.90
                0x0000000008009dc8      0x46c /tmp/ccPT7ssV.ltrans1.ltrans.o
                0x0000000008009dc8                boot_swap_image.constprop.90
 .text.HAL_GetTick
                0x000000000800a234       0x64 /tmp/ccPT7ssV.ltrans1.ltrans.o
                0x000000000800a234                HAL_GetTick
 .text.FLASH_WaitForLastOperation.constprop.212
                0x000000000800a298       0xb8 /tmp/ccPT7ssV.ltrans1.ltrans.o
                0x000000000800a298                FLASH_WaitForLastOperation.constprop.212
 .text.UART_WaitOnFlagUntilTimeout.constprop.36
                0x000000000800a350       0x78 /tmp/ccPT7ssV.ltrans1.ltrans.o
 .text.RCCEx_PLL3_Config
                0x000000000800a3c8      0x100 /tmp/ccPT7ssV.ltrans1.ltrans.o
 .text.RCCEx_PLL2_Config
                0x000000000800a4c8      0x100 /tmp/ccPT7ssV.ltrans1.ltrans.o
 .text.HAL_RCC_OscConfig
                0x000000000800a5c8      0x530 /tmp/ccPT7ssV.ltrans1.ltrans.o
 .text.QSPI_WaitFlagStateUntilTimeout
                0x000000000800aaf8       0x4a /tmp/ccPT7ssV.ltrans1.ltrans.o
 .text.HAL_QSPI_Command.constprop.265
                0x000000000800ab42      0x1de /tmp/ccPT7ssV.ltrans1.ltrans.o
 .text.qspi_read
                0x000000000800ad20       0xe6 /tmp/ccPT7ssV.ltrans1.ltrans.o
 .text._ZN4mbed4QSPI4readEiiiPcPj.constprop.42
                0x000000000800ae06       0x5a /tmp/ccPT7ssV.ltrans1.ltrans.o
                0x000000000800ae06                mbed::QSPI::read(int, int, int, char*, unsigned int*) [clone .constprop.42]
 .text.qspi_write
                0x000000000800ae60       0xde /tmp/ccPT7ssV.ltrans1.ltrans.o
                0x000000000800ae60                qspi_write
 .text._ZN4mbed4QSPI16command_transferEiiPKcjS2_j.constprop.263
                0x000000000800af3e       0xbc /tmp/ccPT7ssV.ltrans1.ltrans.o
                0x000000000800af3e                mbed::QSPI::command_transfer(int, int, char const*, unsigned int, char const*, unsigned int) [clone .constprop.263]
 *fill*         0x000000000800affa        0x2 
 .text.Set_GPIO_Clock
                0x000000000800affc      0x190 /tmp/ccPT7ssV.ltrans1.ltrans.o
                0x000000000800affc                Set_GPIO_Clock
 .text.pin_mode
                0x000000000800b18c       0x68 /tmp/ccPT7ssV.ltrans1.ltrans.o
                0x000000000800b18c                pin_mode
 .text._gpio_init_out.part.1.constprop.279
                0x000000000800b1f4       0x44 /tmp/ccPT7ssV.ltrans1.ltrans.o
                0x000000000800b1f4                _gpio_init_out.part.1.constprop.279
 .text.pin_function
                0x000000000800b238      0x170 /tmp/ccPT7ssV.ltrans1.ltrans.o
                0x000000000800b238                pin_function
 .text.startup._ZN4mbed10DigitalOutC2E7PinNamei.constprop.152
                0x000000000800b3a8       0x58 /tmp/ccPT7ssV.ltrans1.ltrans.o
 .text.HSEM1_IRQHandler
                0x000000000800b400       0x14 /tmp/ccPT7ssV.ltrans1.ltrans.o
                0x000000000800b400                HSEM1_IRQHandler
 .text.SystemCoreClockUpdate
                0x000000000800b414       0x54 /tmp/ccPT7ssV.ltrans1.ltrans.o
                0x000000000800b414                SystemCoreClockUpdate
 .text.SystemInit
                0x000000000800b468       0xe4 /tmp/ccPT7ssV.ltrans1.ltrans.o
                0x000000000800b468                SystemInit
 .text.USB_CoreReset.lto_priv.407
                0x000000000800b54c       0x30 /tmp/ccPT7ssV.ltrans1.ltrans.o
                0x000000000800b54c                USB_CoreReset.lto_priv.407
 .text.USB_EP0_OutStart
                0x000000000800b57c       0x4c /tmp/ccPT7ssV.ltrans1.ltrans.o
                0x000000000800b57c                USB_EP0_OutStart
 .text.USB_DevDisconnect
                0x000000000800b5c8       0x1c /tmp/ccPT7ssV.ltrans1.ltrans.o
                0x000000000800b5c8                USB_DevDisconnect
 .text.USB_ReadPacket
                0x000000000800b5e4       0x4a /tmp/ccPT7ssV.ltrans1.ltrans.o
                0x000000000800b5e4                USB_ReadPacket
 .text.USB_ActivateEndpoint
                0x000000000800b62e       0x72 /tmp/ccPT7ssV.ltrans1.ltrans.o
                0x000000000800b62e                USB_ActivateEndpoint
 .text.HAL_RCCEx_PeriphCLKConfig
                0x000000000800b6a0      0x36c /tmp/ccPT7ssV.ltrans1.ltrans.o
                0x000000000800b6a0                HAL_RCCEx_PeriphCLKConfig
 .text.HAL_RCC_GetSysClockFreq
                0x000000000800ba0c      0x138 /tmp/ccPT7ssV.ltrans1.ltrans.o
                0x000000000800ba0c                HAL_RCC_GetSysClockFreq
 .text.HAL_RCC_GetHCLKFreq
                0x000000000800bb44       0x30 /tmp/ccPT7ssV.ltrans1.ltrans.o
                0x000000000800bb44                HAL_RCC_GetHCLKFreq
 .text.qspi_frequency
                0x000000000800bb74       0xb0 /tmp/ccPT7ssV.ltrans1.ltrans.o
                0x000000000800bb74                qspi_frequency
 .text.unlikely.HAL_RCC_GetPCLK2Freq
                0x000000000800bc24       0x24 /tmp/ccPT7ssV.ltrans1.ltrans.o
 .text.HAL_RCC_GetPCLK1Freq
                0x000000000800bc48       0x24 /tmp/ccPT7ssV.ltrans1.ltrans.o
 .text.unlikely.init_uart.constprop.35
                0x000000000800bc6c      0x554 /tmp/ccPT7ssV.ltrans1.ltrans.o
                0x000000000800bc6c                init_uart.constprop.35
 .text.unlikely.serial_baud.constprop.27
                0x000000000800c1c0       0xc0 /tmp/ccPT7ssV.ltrans1.ltrans.o
                0x000000000800c1c0                serial_baud.constprop.27
 .text.init_32bit_timer
                0x000000000800c280      0x13c /tmp/ccPT7ssV.ltrans1.ltrans.o
                0x000000000800c280                init_32bit_timer
 .text.SetSysClock_PLL_HSI
                0x000000000800c3bc      0x240 /tmp/ccPT7ssV.ltrans1.ltrans.o
                0x000000000800c3bc                SetSysClock_PLL_HSI
 .text.HAL_PCD_Start
                0x000000000800c5fc       0x52 /tmp/ccPT7ssV.ltrans1.ltrans.o
                0x000000000800c5fc                HAL_PCD_Start
 *fill*         0x000000000800c64e        0x2 
 .text.HAL_GPIO_Init
                0x000000000800c650      0x1d4 /tmp/ccPT7ssV.ltrans1.ltrans.o
                0x000000000800c650                HAL_GPIO_Init
 .text.HAL_FLASH_Lock
                0x000000000800c824       0x30 /tmp/ccPT7ssV.ltrans1.ltrans.o
                0x000000000800c824                HAL_FLASH_Lock
 .text.HAL_FLASH_Unlock
                0x000000000800c854       0x4c /tmp/ccPT7ssV.ltrans1.ltrans.o
                0x000000000800c854                HAL_FLASH_Unlock
 .text.osMutexAcquire.constprop.274
                0x000000000800c8a0       0x2c /tmp/ccPT7ssV.ltrans1.ltrans.o
                0x000000000800c8a0                osMutexAcquire.constprop.274
 .text._ZN4mbed10FileSystem9file_syncEPv
                0x000000000800c8cc        0x4 /tmp/ccPT7ssV.ltrans2.ltrans.o
                0x000000000800c8cc                mbed::FileSystem::file_sync(void*)
                0x000000000800c8cc                mbed::FileSystem::dir_tell(void*)
                0x000000000800c8cc                mbed::FileSystem::file_isatty(void*)
 .text._ZN4mbed16FileSystemHandle4openEPPNS_9DirHandleEPKc
                0x000000000800c8d0        0x6 /tmp/ccPT7ssV.ltrans2.ltrans.o
                0x000000000800c8d0                mbed::FileSystemHandle::stat(char const*, stat*)
                0x000000000800c8d0                mbed::FileSystem::stat(char const*, stat*)
                0x000000000800c8d0                mbed::FileSystem::rename(char const*, char const*)
                0x000000000800c8d0                mbed::FileSystemHandle::rename(char const*, char const*)
                0x000000000800c8d0                mbed::FileSystem::dir_read(void*, dirent*)
                0x000000000800c8d0                mbed::FileSystem::statvfs(char const*, statvfs*)
                0x000000000800c8d0                mbed::FileSystem::dir_open(void**, char const*)
                0x000000000800c8d0                mbed::FileSystemHandle::open(mbed::DirHandle**, char const*)
                0x000000000800c8d0                mbed::FileSystemHandle::statvfs(char const*, statvfs*)
 .text._ZN4mbed16FileSystemHandle6removeEPKc
                0x000000000800c8d6        0x6 /tmp/ccPT7ssV.ltrans2.ltrans.o
                0x000000000800c8d6                mbed::FileSystem::reformat(mbed::BlockDevice*)
                0x000000000800c8d6                mbed::FileSystem::remove(char const*)
                0x000000000800c8d6                mbed::FileSystem::dir_close(void*)
                0x000000000800c8d6                mbed::FileSystemHandle::remove(char const*)
 .text._ZN4mbed10FileSystem11file_rewindEPv
                0x000000000800c8dc       0x12 /tmp/ccPT7ssV.ltrans2.ltrans.o
                0x000000000800c8dc                mbed::FileSystem::file_rewind(void*)
 .text._ZN4mbed16FileSystemHandle5mkdirEPKcm
                0x000000000800c8ee        0x6 /tmp/ccPT7ssV.ltrans2.ltrans.o
                0x000000000800c8ee                mbed::FileSystem::mkdir(char const*, unsigned long)
                0x000000000800c8ee                mbed::FileSystemHandle::mkdir(char const*, unsigned long)
 .text._ZN4mbed4File8truncateEl
                0x000000000800c8f4       0x16 /tmp/ccPT7ssV.ltrans2.ltrans.o
 .text._ZN4mbed4File4sizeEv
                0x000000000800c90a        0xc /tmp/ccPT7ssV.ltrans2.ltrans.o
 .text._ZN4mbed4File6rewindEv
                0x000000000800c916        0xc /tmp/ccPT7ssV.ltrans2.ltrans.o
 .text._ZN4mbed4File4tellEv
                0x000000000800c922        0xc /tmp/ccPT7ssV.ltrans2.ltrans.o
 .text._ZN4mbed4File4seekEli
                0x000000000800c92e       0x16 /tmp/ccPT7ssV.ltrans2.ltrans.o
 .text._ZN4mbed4File6isattyEv
                0x000000000800c944        0xc /tmp/ccPT7ssV.ltrans2.ltrans.o
 .text._ZN4mbed4File4syncEv
                0x000000000800c950        0xc /tmp/ccPT7ssV.ltrans2.ltrans.o
 .text._ZN4mbed4File5writeEPKvj
                0x000000000800c95c       0x16 /tmp/ccPT7ssV.ltrans2.ltrans.o
 .text._ZN4mbed4File4readEPvj
                0x000000000800c972       0x16 /tmp/ccPT7ssV.ltrans2.ltrans.o
 .text._ZN4mbed4File5closeEv
                0x000000000800c988       0x1c /tmp/ccPT7ssV.ltrans2.ltrans.o
 .text._ZN4mbed7ManagedINS_4FileEE5closeEv
                0x000000000800c9a4       0x16 /tmp/ccPT7ssV.ltrans2.ltrans.o
 .text._ZN4mbed4File4openEPNS_10FileSystemEPKci
                0x000000000800c9ba       0x22 /tmp/ccPT7ssV.ltrans2.ltrans.o
 .text._ZN4mbed4FileD2Ev
                0x000000000800c9dc       0x18 /tmp/ccPT7ssV.ltrans2.ltrans.o
 .text._ZN4mbed7ManagedINS_4FileEED2Ev
                0x000000000800c9f4       0x14 /tmp/ccPT7ssV.ltrans2.ltrans.o
 .text._ZN4mbed3Dir4sizeEv
                0x000000000800ca08        0xc /tmp/ccPT7ssV.ltrans2.ltrans.o
 .text._ZN4mbed3Dir6rewindEv
                0x000000000800ca14        0xc /tmp/ccPT7ssV.ltrans2.ltrans.o
 .text._ZN4mbed3Dir4tellEv
                0x000000000800ca20        0xc /tmp/ccPT7ssV.ltrans2.ltrans.o
 .text._ZN4mbed3Dir4seekEl
                0x000000000800ca2c       0x16 /tmp/ccPT7ssV.ltrans2.ltrans.o
 .text._ZN4mbed3Dir5closeEv
                0x000000000800ca42       0x1c /tmp/ccPT7ssV.ltrans2.ltrans.o
 .text._ZN4mbed7ManagedINS_3DirEE5closeEv
                0x000000000800ca5e       0x16 /tmp/ccPT7ssV.ltrans2.ltrans.o
 .text._ZN4mbed3Dir4openEPNS_10FileSystemEPKc
                0x000000000800ca74       0x22 /tmp/ccPT7ssV.ltrans2.ltrans.o
 *fill*         0x000000000800ca96        0x2 
 .text._ZN4mbed3DirD2Ev
                0x000000000800ca98       0x18 /tmp/ccPT7ssV.ltrans2.ltrans.o
 .text._ZN4mbed7ManagedINS_3DirEED2Ev
                0x000000000800cab0       0x14 /tmp/ccPT7ssV.ltrans2.ltrans.o
 .text._ZN4mbedL17lfs_statvfs_countEPvm
                0x000000000800cac4        0xa /tmp/ccPT7ssV.ltrans2.ltrans.o
 .text._ZN4mbedL11lfs_bd_readEPK10lfs_configmmPvm
                0x000000000800cace       0x24 /tmp/ccPT7ssV.ltrans2.ltrans.o
 .text._ZN4mbedL11lfs_bd_progEPK10lfs_configmmPKvm
                0x000000000800caf2       0x24 /tmp/ccPT7ssV.ltrans2.ltrans.o
 .text._ZN4mbedL12lfs_bd_eraseEPK10lfs_configm
                0x000000000800cb16       0x1c /tmp/ccPT7ssV.ltrans2.ltrans.o
 .text._ZN4mbedL11lfs_bd_syncEPK10lfs_config
                0x000000000800cb32        0x8 /tmp/ccPT7ssV.ltrans2.ltrans.o
 .text._ZN4mbedL11lfs_toerrorEi
                0x000000000800cb3a        0xc /tmp/ccPT7ssV.ltrans2.ltrans.o
 *fill*         0x000000000800cb46        0x2 
 .text.lfs_crc  0x000000000800cb48       0x44 /tmp/ccPT7ssV.ltrans2.ltrans.o
 .text.lfs_paircmp
                0x000000000800cb8c       0x22 /tmp/ccPT7ssV.ltrans2.ltrans.o
 .text.lfs_pairisnull
                0x000000000800cbae       0x14 /tmp/ccPT7ssV.ltrans2.ltrans.o
 .text.lfs_alloc_lookahead
                0x000000000800cbc2       0x36 /tmp/ccPT7ssV.ltrans2.ltrans.o
 .text._ZN4mbed6detail8invoke_rIvRPFvPKcEJS3_ELi0EEET_OT0_DpOT1_
                0x000000000800cbf8        0x6 /tmp/ccPT7ssV.ltrans2.ltrans.o
 .text._ZN4mbed8CallbackIFvPKcEE11target_callIPS3_EEvPKNS_6detail12CallbackBaseES2_
                0x000000000800cbfe       0x14 /tmp/ccPT7ssV.ltrans2.ltrans.o
 .text._ZN4mbed13FATFileSystem8dir_tellEPv
                0x000000000800cc12       0x1a /tmp/ccPT7ssV.ltrans2.ltrans.o
                0x000000000800cc12                mbed::FATFileSystem::dir_tell(void*)
 .text._ZN4mbed13FATFileSystem9file_sizeEPv
                0x000000000800cc2c       0x1a /tmp/ccPT7ssV.ltrans2.ltrans.o
                0x000000000800cc2c                mbed::FATFileSystem::file_size(void*)
 .text._ZN4mbed13FATFileSystem9file_tellEPv
                0x000000000800cc46       0x1a /tmp/ccPT7ssV.ltrans2.ltrans.o
                0x000000000800cc46                mbed::FATFileSystem::file_tell(void*)
 .text._ZN4mbed13FATFileSystem5mountEPNS_11BlockDeviceE
                0x000000000800cc60        0xa /tmp/ccPT7ssV.ltrans2.ltrans.o
                0x000000000800cc60                mbed::FATFileSystem::mount(mbed::BlockDevice*)
 .text._ZN4mbedL15fat_error_remapE7FRESULT
                0x000000000800cc6a       0x72 /tmp/ccPT7ssV.ltrans2.ltrans.o
 .text._ZL8st_clustP5FATFSPhm.isra.3
                0x000000000800ccdc       0x16 /tmp/ccPT7ssV.ltrans2.ltrans.o
 .text._ZL8ld_clustP5FATFSPKh.isra.2
                0x000000000800ccf2       0x1e /tmp/ccPT7ssV.ltrans2.ltrans.o
 .text._ZL8validateP7FFOBJIDPP5FATFS
                0x000000000800cd10       0x30 /tmp/ccPT7ssV.ltrans2.ltrans.o
 .text._ZL12get_ldnumberPPKc
                0x000000000800cd40       0x3a /tmp/ccPT7ssV.ltrans2.ltrans.o
 .text._ZN4mbed7ManagedINS_4FileEED0Ev
                0x000000000800cd7a       0x12 /tmp/ccPT7ssV.ltrans2.ltrans.o
 .text._ZN4mbed7ManagedINS_3DirEED0Ev
                0x000000000800cd8c       0x12 /tmp/ccPT7ssV.ltrans2.ltrans.o
 .text._ZN4mbed4FileD0Ev
                0x000000000800cd9e       0x12 /tmp/ccPT7ssV.ltrans2.ltrans.o
 .text._ZN4mbed3DirD0Ev
                0x000000000800cdb0       0x12 /tmp/ccPT7ssV.ltrans2.ltrans.o
 .text.lfs_deinit
                0x000000000800cdc2       0x2e /tmp/ccPT7ssV.ltrans2.ltrans.o
 .text._ZN4mbed13FATFileSystem9dir_closeEPv
                0x000000000800cdf0       0x34 /tmp/ccPT7ssV.ltrans2.ltrans.o
                0x000000000800cdf0                mbed::FATFileSystem::dir_close(void*)
 .text._ZN4mbedL8dodeleteEPKc.lto_priv.305
                0x000000000800ce24        0x8 /tmp/ccPT7ssV.ltrans2.ltrans.o
                0x000000000800ce24                mbed::dodelete(char const*) [clone .lto_priv.305]
 .text._ZN4mbed3Dir4readEP6dirent
                0x000000000800ce2c       0x26 /tmp/ccPT7ssV.ltrans2.ltrans.o
 .text.lfs_cache_zero.isra.14
                0x000000000800ce52       0x16 /tmp/ccPT7ssV.ltrans2.ltrans.o
 .text._ZN4mbed16LittleFileSystem8dir_tellEPv
                0x000000000800ce68       0x20 /tmp/ccPT7ssV.ltrans2.ltrans.o
                0x000000000800ce68                mbed::LittleFileSystem::dir_tell(void*)
 .text._ZN4mbed16LittleFileSystem9dir_closeEPv
                0x000000000800ce88       0x3c /tmp/ccPT7ssV.ltrans2.ltrans.o
                0x000000000800ce88                mbed::LittleFileSystem::dir_close(void*)
 .text._ZN4mbed16LittleFileSystem9file_sizeEPv
                0x000000000800cec4       0x30 /tmp/ccPT7ssV.ltrans2.ltrans.o
                0x000000000800cec4                mbed::LittleFileSystem::file_size(void*)
 .text._ZN4mbed16LittleFileSystem9file_tellEPv
                0x000000000800cef4       0x20 /tmp/ccPT7ssV.ltrans2.ltrans.o
                0x000000000800cef4                mbed::LittleFileSystem::file_tell(void*)
 .text._ZN4mbed16LittleFileSystem7unmountEv
                0x000000000800cf14       0x38 /tmp/ccPT7ssV.ltrans2.ltrans.o
                0x000000000800cf14                mbed::LittleFileSystem::unmount()
 .text.lfs_init
                0x000000000800cf4c       0x7a /tmp/ccPT7ssV.ltrans2.ltrans.o
 .text.lfs_cache_flush
                0x000000000800cfc6       0x5a /tmp/ccPT7ssV.ltrans2.ltrans.o
 .text.lfs_cache_prog
                0x000000000800d020       0xe6 /tmp/ccPT7ssV.ltrans2.ltrans.o
 *fill*         0x000000000800d106        0x2 
 .text._ZL8check_fsP5FATFSm.part.7
                0x000000000800d108       0xb0 /tmp/ccPT7ssV.ltrans2.ltrans.o
 .text._ZL12get_fileinfoP9FATFS_DIRP7FILINFO.part.4
                0x000000000800d1b8       0x66 /tmp/ccPT7ssV.ltrans2.ltrans.o
 *fill*         0x000000000800d21e        0x2 
 .text._ZN4mbed13FATFileSystem6unlockEv
                0x000000000800d220       0x14 /tmp/ccPT7ssV.ltrans2.ltrans.o
                0x000000000800d220                mbed::FATFileSystem::unlock()
 .text._ZN4mbed13FATFileSystem4lockEv
                0x000000000800d234       0x14 /tmp/ccPT7ssV.ltrans2.ltrans.o
                0x000000000800d234                mbed::FATFileSystem::lock()
 .text.get_fattime
                0x000000000800d248       0x5c /tmp/ccPT7ssV.ltrans2.ltrans.o
 .text.f_sync   0x000000000800d2a4       0x6c /tmp/ccPT7ssV.ltrans2.ltrans.o
 .text._ZN4mbed13FATFileSystem9file_syncEPv
                0x000000000800d310       0x26 /tmp/ccPT7ssV.ltrans2.ltrans.o
                0x000000000800d310                mbed::FATFileSystem::file_sync(void*)
 .text._ZN4mbed13FATFileSystem10file_closeEPv
                0x000000000800d336       0x3e /tmp/ccPT7ssV.ltrans2.ltrans.o
                0x000000000800d336                mbed::FATFileSystem::file_close(void*)
 .text.f_readdir
                0x000000000800d374       0x42 /tmp/ccPT7ssV.ltrans2.ltrans.o
 .text._ZN4mbed13FATFileSystem10dir_rewindEPv
                0x000000000800d3b6       0x20 /tmp/ccPT7ssV.ltrans2.ltrans.o
                0x000000000800d3b6                mbed::FATFileSystem::dir_rewind(void*)
 .text._ZN4mbed13FATFileSystem8dir_seekEPvl
                0x000000000800d3d6       0x46 /tmp/ccPT7ssV.ltrans2.ltrans.o
                0x000000000800d3d6                mbed::FATFileSystem::dir_seek(void*, long)
 .text._ZN4mbed13FATFileSystem8dir_readEPvP6dirent
                0x000000000800d41c       0x5a /tmp/ccPT7ssV.ltrans2.ltrans.o
                0x000000000800d41c                mbed::FATFileSystem::dir_read(void*, dirent*)
 *fill*         0x000000000800d476        0x2 
 .text._ZL11follow_pathP9FATFS_DIRPKc
                0x000000000800d478      0x184 /tmp/ccPT7ssV.ltrans2.ltrans.o
 .text._ZL12dir_registerP9FATFS_DIR
                0x000000000800d5fc       0x6a /tmp/ccPT7ssV.ltrans2.ltrans.o
 .text.HAL_Delay
                0x000000000800d666       0x1c /tmp/ccPT7ssV.ltrans2.ltrans.o
                0x000000000800d666                HAL_Delay
 *fill*         0x000000000800d682        0x2 
 .text._ZN4mbed16LittleFileSystemD2Ev
                0x000000000800d684       0x34 /tmp/ccPT7ssV.ltrans2.ltrans.o
                0x000000000800d684                mbed::LittleFileSystem::~LittleFileSystem()
                0x000000000800d684                mbed::LittleFileSystem::~LittleFileSystem()
                0x000000000800d684                .LTHUNK4.lto_priv.339
 .text._ZThn4_N4mbed16LittleFileSystemD1Ev
                0x000000000800d6b8        0x8 /tmp/ccPT7ssV.ltrans2.ltrans.o
                0x000000000800d6b8                non-virtual thunk to mbed::LittleFileSystem::~LittleFileSystem()
 .text._ZN4mbed16LittleFileSystemD0Ev
                0x000000000800d6c0       0x12 /tmp/ccPT7ssV.ltrans2.ltrans.o
                0x000000000800d6c0                .LTHUNK5.lto_priv.341
                0x000000000800d6c0                mbed::LittleFileSystem::~LittleFileSystem()
 .text._ZThn4_N4mbed16LittleFileSystemD0Ev
                0x000000000800d6d2        0x8 /tmp/ccPT7ssV.ltrans2.ltrans.o
                0x000000000800d6d2                non-virtual thunk to mbed::LittleFileSystem::~LittleFileSystem()
 .text.lfs_ctz_index.isra.16.lto_priv.337
                0x000000000800d6da       0x34 /tmp/ccPT7ssV.ltrans2.ltrans.o
                0x000000000800d6da                lfs_ctz_index.isra.16.lto_priv.337
 .text.lfs_cache_read.isra.9.lto_priv.336
                0x000000000800d70e       0xd4 /tmp/ccPT7ssV.ltrans2.ltrans.o
                0x000000000800d70e                lfs_cache_read.isra.9.lto_priv.336
 .text.lfs_ctz_traverse.part.17
                0x000000000800d7e2       0x7e /tmp/ccPT7ssV.ltrans2.ltrans.o
 .text.lfs_bd_crc
                0x000000000800d860       0x4a /tmp/ccPT7ssV.ltrans2.ltrans.o
 .text.lfs_bd_read
                0x000000000800d8aa       0x1a /tmp/ccPT7ssV.ltrans2.ltrans.o
 .text.lfs_dir_fetch
                0x000000000800d8c4       0xd0 /tmp/ccPT7ssV.ltrans2.ltrans.o
 .text._ZN4mbed16LittleFileSystem10dir_rewindEPv
                0x000000000800d994       0x3a /tmp/ccPT7ssV.ltrans2.ltrans.o
                0x000000000800d994                mbed::LittleFileSystem::dir_rewind(void*)
 .text._ZN4mbed16LittleFileSystem8dir_seekEPvl
                0x000000000800d9ce       0x64 /tmp/ccPT7ssV.ltrans2.ltrans.o
                0x000000000800d9ce                mbed::LittleFileSystem::dir_seek(void*, long)
 *fill*         0x000000000800da32        0x2 
 .text._ZN4mbed16LittleFileSystem5mountEPNS_11BlockDeviceE
                0x000000000800da34      0x160 /tmp/ccPT7ssV.ltrans2.ltrans.o
                0x000000000800da34                mbed::LittleFileSystem::mount(mbed::BlockDevice*)
 .text.lfs_traverse.part.22
                0x000000000800db94      0x112 /tmp/ccPT7ssV.ltrans2.ltrans.o
 *fill*         0x000000000800dca6        0x2 
 .text.lfs_alloc
                0x000000000800dca8       0xd0 /tmp/ccPT7ssV.ltrans2.ltrans.o
 .text.lfs_file_relocate
                0x000000000800dd78       0xac /tmp/ccPT7ssV.ltrans2.ltrans.o
 .text.lfs_file_flush
                0x000000000800de24       0xcc /tmp/ccPT7ssV.ltrans2.ltrans.o
 .text._ZN4mbed16LittleFileSystem9file_seekEPvli
                0x000000000800def0       0x56 /tmp/ccPT7ssV.ltrans2.ltrans.o
                0x000000000800def0                mbed::LittleFileSystem::file_seek(void*, long, int)
 .text.lfs_file_write
                0x000000000800df46      0x26a /tmp/ccPT7ssV.ltrans2.ltrans.o
 .text._ZN4mbed16LittleFileSystem13file_truncateEPvl
                0x000000000800e1b0       0xf0 /tmp/ccPT7ssV.ltrans2.ltrans.o
                0x000000000800e1b0                mbed::LittleFileSystem::file_truncate(void*, long)
 .text._ZN4mbed16LittleFileSystem10file_writeEPvPKvj
                0x000000000800e2a0       0x36 /tmp/ccPT7ssV.ltrans2.ltrans.o
                0x000000000800e2a0                mbed::LittleFileSystem::file_write(void*, void const*, unsigned int)
 .text.lfs_file_read
                0x000000000800e2d6       0xc6 /tmp/ccPT7ssV.ltrans2.ltrans.o
 .text._ZN4mbed16LittleFileSystem9file_readEPvS1_j
                0x000000000800e39c       0x36 /tmp/ccPT7ssV.ltrans2.ltrans.o
                0x000000000800e39c                mbed::LittleFileSystem::file_read(void*, void*, unsigned int)
 *fill*         0x000000000800e3d2        0x2 
 .text._ZN4mbed16LittleFileSystem7statvfsEPKcP7statvfs
                0x000000000800e3d4       0x74 /tmp/ccPT7ssV.ltrans2.ltrans.o
                0x000000000800e3d4                mbed::LittleFileSystem::statvfs(char const*, statvfs*)
 .text.lfs_pred
                0x000000000800e448       0x56 /tmp/ccPT7ssV.ltrans2.ltrans.o
 .text.lfs_dir_next
                0x000000000800e49e       0x86 /tmp/ccPT7ssV.ltrans2.ltrans.o
 .text.lfs_parent.part.12
                0x000000000800e524       0x62 /tmp/ccPT7ssV.ltrans2.ltrans.o
 .text.lfs_moved
                0x000000000800e586       0x70 /tmp/ccPT7ssV.ltrans2.ltrans.o
 *fill*         0x000000000800e5f6        0x2 
 .text._ZN4mbed16LittleFileSystem8dir_readEPvP6dirent
                0x000000000800e5f8      0x114 /tmp/ccPT7ssV.ltrans2.ltrans.o
                0x000000000800e5f8                mbed::LittleFileSystem::dir_read(void*, dirent*)
 .text.lfs_deorphan
                0x000000000800e70c      0x120 /tmp/ccPT7ssV.ltrans2.ltrans.o
 .text.lfs_dir_commit
                0x000000000800e82c      0x28a /tmp/ccPT7ssV.ltrans2.ltrans.o
 .text.lfs_dir_remove
                0x000000000800eab6      0x104 /tmp/ccPT7ssV.ltrans2.ltrans.o
 .text.lfs_dir_update
                0x000000000800ebba       0x32 /tmp/ccPT7ssV.ltrans2.ltrans.o
 .text.lfs_file_sync
                0x000000000800ebec       0x78 /tmp/ccPT7ssV.ltrans2.ltrans.o
 .text._ZN4mbed16LittleFileSystem9file_syncEPv
                0x000000000800ec64       0x2c /tmp/ccPT7ssV.ltrans2.ltrans.o
                0x000000000800ec64                mbed::LittleFileSystem::file_sync(void*)
 .text._ZN4mbed16LittleFileSystem10file_closeEPv
                0x000000000800ec90       0x5c /tmp/ccPT7ssV.ltrans2.ltrans.o
                0x000000000800ec90                mbed::LittleFileSystem::file_close(void*)
 .text.lfs_dir_find
                0x000000000800ecec      0x150 /tmp/ccPT7ssV.ltrans2.ltrans.o
 .text._ZN4mbed16LittleFileSystem4statEPKcP4stat
                0x000000000800ee3c       0xb8 /tmp/ccPT7ssV.ltrans2.ltrans.o
                0x000000000800ee3c                mbed::LittleFileSystem::stat(char const*, stat*)
 .text._ZN4mbed16LittleFileSystem6removeEPKc
                0x000000000800eef4       0xb0 /tmp/ccPT7ssV.ltrans2.ltrans.o
                0x000000000800eef4                mbed::LittleFileSystem::remove(char const*)
 .text.lfs_dir_alloc
                0x000000000800efa4       0x58 /tmp/ccPT7ssV.ltrans2.ltrans.o
 .text._ZN4mbed16LittleFileSystem8reformatEPNS_11BlockDeviceE
                0x000000000800effc      0x224 /tmp/ccPT7ssV.ltrans2.ltrans.o
                0x000000000800effc                mbed::LittleFileSystem::reformat(mbed::BlockDevice*)
 .text.lfs_dir_append
                0x000000000800f220       0xda /tmp/ccPT7ssV.ltrans2.ltrans.o
 .text._ZN4mbed16LittleFileSystem5mkdirEPKcm
                0x000000000800f2fa       0xce /tmp/ccPT7ssV.ltrans2.ltrans.o
                0x000000000800f2fa                mbed::LittleFileSystem::mkdir(char const*, unsigned long)
 .text._ZN4mbed16LittleFileSystem6renameEPKcS2_
                0x000000000800f3c8      0x18e /tmp/ccPT7ssV.ltrans2.ltrans.o
                0x000000000800f3c8                mbed::LittleFileSystem::rename(char const*, char const*)
 .text._ZNK4mbed6detail12CallbackBase7call_fnEv.isra.3.lto_priv.370
                0x000000000800f556        0x2 /tmp/ccPT7ssV.ltrans2.ltrans.o
                0x000000000800f556                mbed::detail::CallbackBase::call_fn() const [clone .isra.3] [clone .lto_priv.370]
                0x000000000800f556                mbed::detail::CallbackBase::call_fn() const [clone .isra.5] [clone .lto_priv.365]
 .text._ZNK4mbed8CallbackIFvPKcEE4callES2_
                0x000000000800f558       0x14 /tmp/ccPT7ssV.ltrans2.ltrans.o
 .text._ZNK4mbed8CallbackIFvPKcEEclES2_
                0x000000000800f56c        0x4 /tmp/ccPT7ssV.ltrans2.ltrans.o
 .text._ZN4mbed8CallbackIFvPKcEE8generateIPS3_vEEvOT_
                0x000000000800f570       0x18 /tmp/ccPT7ssV.ltrans2.ltrans.o
                0x000000000800f570                void mbed::Callback<void (char const*)>::generate<void (*)(char const*), void>(void (*&&)(char const*))
 .text._ZNK4mbed8CallbackIFvvEEcvbEv
                0x000000000800f588       0x10 /tmp/ccPT7ssV.ltrans2.ltrans.o
                0x000000000800f588                mbed::Callback<void ()>::operator bool() const
 .text._ZN4mbed8DeferredIPKcED2Ev
                0x000000000800f598       0x1a /tmp/ccPT7ssV.ltrans2.ltrans.o
 *fill*         0x000000000800f5b2        0x2 
 .text._ZN4mbedL20disk_get_sector_sizeEh.lto_priv.364
                0x000000000800f5b4       0x20 /tmp/ccPT7ssV.ltrans2.ltrans.o
                0x000000000800f5b4                mbed::disk_get_sector_size(unsigned char) [clone .lto_priv.364]
 .text.disk_write
                0x000000000800f5d4       0x58 /tmp/ccPT7ssV.ltrans2.ltrans.o
                0x000000000800f5d4                disk_write
 .text._ZN4mbed13FATFileSystem10file_writeEPvPKvj
                0x000000000800f62c      0x1e4 /tmp/ccPT7ssV.ltrans2.ltrans.o
                0x000000000800f62c                mbed::FATFileSystem::file_write(void*, void const*, unsigned int)
 .text.disk_read
                0x000000000800f810       0x3c /tmp/ccPT7ssV.ltrans2.ltrans.o
                0x000000000800f810                disk_read
 .text._ZL12mount_volumePPKcPP5FATFSh
                0x000000000800f84c      0x304 /tmp/ccPT7ssV.ltrans2.ltrans.o
 .text.f_mount  0x000000000800fb50       0x54 /tmp/ccPT7ssV.ltrans2.ltrans.o
 .text._ZN4mbed13FATFileSystem7unmountEv
                0x000000000800fba4       0x6c /tmp/ccPT7ssV.ltrans2.ltrans.o
                0x000000000800fba4                mbed::FATFileSystem::unmount()
 .text._ZN4mbed13FATFileSystemD2Ev
                0x000000000800fc10       0x2c /tmp/ccPT7ssV.ltrans2.ltrans.o
                0x000000000800fc10                mbed::FATFileSystem::~FATFileSystem()
                0x000000000800fc10                mbed::FATFileSystem::~FATFileSystem()
                0x000000000800fc10                .LTHUNK4.lto_priv.338
 .text._ZThn4_N4mbed13FATFileSystemD1Ev
                0x000000000800fc3c        0x8 /tmp/ccPT7ssV.ltrans2.ltrans.o
                0x000000000800fc3c                non-virtual thunk to mbed::FATFileSystem::~FATFileSystem()
 .text._ZN4mbed13FATFileSystemD0Ev
                0x000000000800fc44       0x12 /tmp/ccPT7ssV.ltrans2.ltrans.o
                0x000000000800fc44                .LTHUNK5.lto_priv.340
                0x000000000800fc44                mbed::FATFileSystem::~FATFileSystem()
 .text._ZThn4_N4mbed13FATFileSystemD0Ev
                0x000000000800fc56        0x8 /tmp/ccPT7ssV.ltrans2.ltrans.o
                0x000000000800fc56                non-virtual thunk to mbed::FATFileSystem::~FATFileSystem()
 *fill*         0x000000000800fc5e        0x2 
 .text._ZN4mbed13FATFileSystem5mountEPNS_11BlockDeviceEb
                0x000000000800fc60       0x7c /tmp/ccPT7ssV.ltrans2.ltrans.o
                0x000000000800fc60                mbed::FATFileSystem::mount(mbed::BlockDevice*, bool)
 .text._ZL7get_fatP7FFOBJIDm.isra.9.lto_priv.332
                0x000000000800fcdc       0xd8 /tmp/ccPT7ssV.ltrans2.ltrans.o
                0x000000000800fcdc                get_fat(FFOBJID*, unsigned long) [clone .isra.9] [clone .lto_priv.332]
 .text._ZN4mbed13FATFileSystem9file_readEPvS1_j
                0x000000000800fdb4      0x176 /tmp/ccPT7ssV.ltrans2.ltrans.o
                0x000000000800fdb4                mbed::FATFileSystem::file_read(void*, void*, unsigned int)
 .text._ZN4mbed13FATFileSystem7statvfsEPKcP7statvfs
                0x000000000800ff2a      0x132 /tmp/ccPT7ssV.ltrans2.ltrans.o
                0x000000000800ff2a                mbed::FATFileSystem::statvfs(char const*, statvfs*)
 .text.f_lseek  0x000000000801005c      0x10c /tmp/ccPT7ssV.ltrans2.ltrans.o
 .text._ZN4mbed13FATFileSystem13file_truncateEPvl
                0x0000000008010168       0xd2 /tmp/ccPT7ssV.ltrans2.ltrans.o
                0x0000000008010168                mbed::FATFileSystem::file_truncate(void*, long)
 .text._ZN4mbed13FATFileSystem9file_seekEPvli
                0x000000000801023a       0x44 /tmp/ccPT7ssV.ltrans2.ltrans.o
                0x000000000801023a                mbed::FATFileSystem::file_seek(void*, long, int)
 *fill*         0x000000000801027e        0x2 
 .text._ZN4mbed10FileSystem4openEPPNS_9DirHandleEPKc
                0x0000000008010280       0x3c /tmp/ccPT7ssV.ltrans2.ltrans.o
                0x0000000008010280                mbed::FileSystem::open(mbed::DirHandle**, char const*)
 .text._ZN4mbed10FileSystem4openEPPNS_10FileHandleEPKci
                0x00000000080102bc       0x44 /tmp/ccPT7ssV.ltrans2.ltrans.o
                0x00000000080102bc                mbed::FileSystem::open(mbed::FileHandle**, char const*, int)
 .text._ZN4mbed10FileSystem8dir_sizeEPv
                0x0000000008010300       0x52 /tmp/ccPT7ssV.ltrans2.ltrans.o
                0x0000000008010300                mbed::FileSystem::dir_size(void*)
 .text._ZN4mbed16LittleFileSystem8dir_openEPPvPKc
                0x0000000008010352       0x90 /tmp/ccPT7ssV.ltrans2.ltrans.o
                0x0000000008010352                mbed::LittleFileSystem::dir_open(void**, char const*)
 .text._ZN4mbed16LittleFileSystem9file_openEPPvPKci
                0x00000000080103e2      0x1c8 /tmp/ccPT7ssV.ltrans2.ltrans.o
                0x00000000080103e2                mbed::LittleFileSystem::file_open(void**, char const*, int)
 .text._ZN4mbedL15fat_path_prefixEiPKc
                0x00000000080105aa       0x6e /tmp/ccPT7ssV.ltrans2.ltrans.o
 .text._ZN4mbed13FATFileSystem8dir_openEPPvPKc
                0x0000000008010618       0xb6 /tmp/ccPT7ssV.ltrans2.ltrans.o
                0x0000000008010618                mbed::FATFileSystem::dir_open(void**, char const*)
 .text._ZN4mbed13FATFileSystem9file_openEPPvPKci
                0x00000000080106ce      0x21c /tmp/ccPT7ssV.ltrans2.ltrans.o
                0x00000000080106ce                mbed::FATFileSystem::file_open(void**, char const*, int)
 .text._ZN4mbed13FATFileSystem4statEPKcP4stat
                0x00000000080108ea       0xae /tmp/ccPT7ssV.ltrans2.ltrans.o
                0x00000000080108ea                mbed::FATFileSystem::stat(char const*, stat*)
 .text._ZN4mbed13FATFileSystem5mkdirEPKcm
                0x0000000008010998      0x156 /tmp/ccPT7ssV.ltrans2.ltrans.o
                0x0000000008010998                mbed::FATFileSystem::mkdir(char const*, unsigned long)
 .text._ZN4mbed13FATFileSystem6renameEPKcS2_
                0x0000000008010aee      0x194 /tmp/ccPT7ssV.ltrans2.ltrans.o
                0x0000000008010aee                mbed::FATFileSystem::rename(char const*, char const*)
 .text._ZN4mbed13FATFileSystem6removeEPKc
                0x0000000008010c82       0xf0 /tmp/ccPT7ssV.ltrans2.ltrans.o
                0x0000000008010c82                mbed::FATFileSystem::remove(char const*)
 .text._ZNK4mbed18SlicingBlockDevice8get_typeEv
                0x0000000008010d72        0x8 /tmp/ccPT7ssV.ltrans3.ltrans.o
                0x0000000008010d72                mbed::SlicingBlockDevice::get_type() const
 .text._ZNK4mbed18SlicingBlockDevice4sizeEv
                0x0000000008010d7a       0x12 /tmp/ccPT7ssV.ltrans3.ltrans.o
                0x0000000008010d7a                mbed::SlicingBlockDevice::size() const
 .text._ZNK4mbed18SlicingBlockDevice15get_erase_valueEv
                0x0000000008010d8c        0x8 /tmp/ccPT7ssV.ltrans3.ltrans.o
                0x0000000008010d8c                mbed::SlicingBlockDevice::get_erase_value() const
 .text._ZNK4mbed18SlicingBlockDevice14get_erase_sizeEy
                0x0000000008010d94       0x18 /tmp/ccPT7ssV.ltrans3.ltrans.o
                0x0000000008010d94                mbed::SlicingBlockDevice::get_erase_size(unsigned long long) const
 .text._ZNK4mbed18SlicingBlockDevice14get_erase_sizeEv
                0x0000000008010dac       0x16 /tmp/ccPT7ssV.ltrans3.ltrans.o
                0x0000000008010dac                mbed::SlicingBlockDevice::get_erase_size() const
 .text._ZNK4mbed18SlicingBlockDevice16get_program_sizeEv
                0x0000000008010dc2        0x8 /tmp/ccPT7ssV.ltrans3.ltrans.o
                0x0000000008010dc2                mbed::SlicingBlockDevice::get_program_size() const
 .text._ZNK4mbed18SlicingBlockDevice13get_read_sizeEv
                0x0000000008010dca        0x8 /tmp/ccPT7ssV.ltrans3.ltrans.o
                0x0000000008010dca                mbed::SlicingBlockDevice::get_read_size() const
 .text._ZNK4mbed18SlicingBlockDevice14is_valid_eraseEyy
                0x0000000008010dd2       0x50 /tmp/ccPT7ssV.ltrans3.ltrans.o
                0x0000000008010dd2                mbed::SlicingBlockDevice::is_valid_erase(unsigned long long, unsigned long long) const
 .text._ZNK4mbed18SlicingBlockDevice16is_valid_programEyy
                0x0000000008010e22       0x50 /tmp/ccPT7ssV.ltrans3.ltrans.o
                0x0000000008010e22                mbed::SlicingBlockDevice::is_valid_program(unsigned long long, unsigned long long) const
 .text._ZNK4mbed18SlicingBlockDevice13is_valid_readEyy
                0x0000000008010e72       0x50 /tmp/ccPT7ssV.ltrans3.ltrans.o
                0x0000000008010e72                mbed::SlicingBlockDevice::is_valid_read(unsigned long long, unsigned long long) const
 .text._ZN4mbed18SlicingBlockDevice5eraseEyy
                0x0000000008010ec2       0x42 /tmp/ccPT7ssV.ltrans3.ltrans.o
                0x0000000008010ec2                mbed::SlicingBlockDevice::erase(unsigned long long, unsigned long long)
 .text._ZN4mbed18SlicingBlockDevice7programEPKvyy
                0x0000000008010f04       0x48 /tmp/ccPT7ssV.ltrans3.ltrans.o
                0x0000000008010f04                mbed::SlicingBlockDevice::program(void const*, unsigned long long, unsigned long long)
 .text._ZN4mbed18SlicingBlockDevice4readEPvyy
                0x0000000008010f4c       0x48 /tmp/ccPT7ssV.ltrans3.ltrans.o
                0x0000000008010f4c                mbed::SlicingBlockDevice::read(void*, unsigned long long, unsigned long long)
 .text._ZN4mbed18SlicingBlockDevice4syncEv
                0x0000000008010f94        0x8 /tmp/ccPT7ssV.ltrans3.ltrans.o
                0x0000000008010f94                mbed::SlicingBlockDevice::sync()
 .text._ZN4mbed18SlicingBlockDevice6deinitEv
                0x0000000008010f9c        0x8 /tmp/ccPT7ssV.ltrans3.ltrans.o
                0x0000000008010f9c                mbed::SlicingBlockDevice::deinit()
 .text._ZN4mbed18SlicingBlockDevice4initEv
                0x0000000008010fa4       0x7e /tmp/ccPT7ssV.ltrans3.ltrans.o
                0x0000000008010fa4                mbed::SlicingBlockDevice::init()
 .text._ZNK4mbed14MBRBlockDevice8get_typeEv
                0x0000000008011022        0xc /tmp/ccPT7ssV.ltrans3.ltrans.o
                0x0000000008011022                mbed::MBRBlockDevice::get_type() const
 .text._ZNK4mbed14MBRBlockDevice20get_partition_numberEv
                0x000000000801102e        0x4 /tmp/ccPT7ssV.ltrans3.ltrans.o
                0x000000000801102e                mbed::MBRBlockDevice::get_partition_number() const
 .text._ZNK4mbed14MBRBlockDevice18get_partition_typeEv
                0x0000000008011032        0x4 /tmp/ccPT7ssV.ltrans3.ltrans.o
                0x0000000008011032                mbed::MBRBlockDevice::get_partition_type() const
 .text._ZNK4mbed14MBRBlockDevice18get_partition_stopEv
                0x0000000008011036       0x12 /tmp/ccPT7ssV.ltrans3.ltrans.o
                0x0000000008011036                mbed::MBRBlockDevice::get_partition_stop() const
 .text._ZNK4mbed14MBRBlockDevice19get_partition_startEv
                0x0000000008011048        0x6 /tmp/ccPT7ssV.ltrans3.ltrans.o
                0x0000000008011048                mbed::MBRBlockDevice::get_partition_start() const
 .text._ZNK4mbed14MBRBlockDevice4sizeEv
                0x000000000801104e        0x6 /tmp/ccPT7ssV.ltrans3.ltrans.o
                0x000000000801104e                mbed::MBRBlockDevice::size() const
 .text._ZNK4mbed14MBRBlockDevice15get_erase_valueEv
                0x0000000008011054       0x14 /tmp/ccPT7ssV.ltrans3.ltrans.o
                0x0000000008011054                mbed::MBRBlockDevice::get_erase_value() const
 .text._ZNK4mbed14MBRBlockDevice14get_erase_sizeEy
                0x0000000008011068       0x2a /tmp/ccPT7ssV.ltrans3.ltrans.o
                0x0000000008011068                mbed::MBRBlockDevice::get_erase_size(unsigned long long) const
 .text._ZNK4mbed14MBRBlockDevice14get_erase_sizeEv
                0x0000000008011092       0x14 /tmp/ccPT7ssV.ltrans3.ltrans.o
                0x0000000008011092                mbed::MBRBlockDevice::get_erase_size() const
 .text._ZNK4mbed14MBRBlockDevice16get_program_sizeEv
                0x00000000080110a6       0x14 /tmp/ccPT7ssV.ltrans3.ltrans.o
                0x00000000080110a6                mbed::MBRBlockDevice::get_program_size() const
 .text._ZNK4mbed14MBRBlockDevice13get_read_sizeEv
                0x00000000080110ba       0x14 /tmp/ccPT7ssV.ltrans3.ltrans.o
                0x00000000080110ba                mbed::MBRBlockDevice::get_read_size() const
 .text._ZN4mbed14MBRBlockDevice5eraseEyy
                0x00000000080110ce       0x48 /tmp/ccPT7ssV.ltrans3.ltrans.o
                0x00000000080110ce                mbed::MBRBlockDevice::erase(unsigned long long, unsigned long long)
 .text._ZN4mbed14MBRBlockDevice7programEPKvyy
                0x0000000008011116       0x4e /tmp/ccPT7ssV.ltrans3.ltrans.o
                0x0000000008011116                mbed::MBRBlockDevice::program(void const*, unsigned long long, unsigned long long)
 .text._ZN4mbed14MBRBlockDevice4readEPvyy
                0x0000000008011164       0x4e /tmp/ccPT7ssV.ltrans3.ltrans.o
                0x0000000008011164                mbed::MBRBlockDevice::read(void*, unsigned long long, unsigned long long)
 .text._ZN4mbed14MBRBlockDevice4syncEv
                0x00000000080111b2       0x14 /tmp/ccPT7ssV.ltrans3.ltrans.o
                0x00000000080111b2                mbed::MBRBlockDevice::sync()
 .text._ZN4mbed6detail8invoke_rIiRKM16QSPIFBlockDeviceFiyNS_20sfdp_cmd_addr_size_tEhhPvyEJRKPS2_yS3_hhS4_yELi0EEET_OT0_DpOT1_
                0x00000000080111c6       0x42 /tmp/ccPT7ssV.ltrans3.ltrans.o
 .text._ZZN4mbed8CallbackIFiyNS_20sfdp_cmd_addr_size_tEhhPvyEEC4IP16QSPIFBlockDeviceMS6_FiyS1_hhS2_yELi0EEET_T0_ENKUlyS1_hhS2_yE_clEyS1_hhS2_y
                0x0000000008011208       0x2a /tmp/ccPT7ssV.ltrans3.ltrans.o
 .text._ZN4mbed6detail8invoke_rIiRZNS_8CallbackIFiyNS_20sfdp_cmd_addr_size_tEhhPvyEEC4IP16QSPIFBlockDeviceMS8_FiyS3_hhS4_yELi0EEET_T0_EUlyS3_hhS4_yE_JyS3_hhS4_yELi0EEESC_OSD_DpOT1_
                0x0000000008011232       0x2e /tmp/ccPT7ssV.ltrans3.ltrans.o
 .text._ZN4mbed8CallbackIFiyNS_20sfdp_cmd_addr_size_tEhhPvyEE11target_callIZNS4_C4IP16QSPIFBlockDeviceMS7_FiyS1_hhS2_yELi0EEET_T0_EUlyS1_hhS2_yE_EEiPKNS_6detail12CallbackBaseEyS1_hhS2_y
                0x0000000008011260       0x22 /tmp/ccPT7ssV.ltrans3.ltrans.o
 .text._ZNK4mbed15FileBlockDevice15get_erase_valueEv
                0x0000000008011282        0x4 /tmp/ccPT7ssV.ltrans3.ltrans.o
                0x0000000008011282                QSPIFBlockDevice::get_erase_value() const
                0x0000000008011282                mbed::FileBlockDevice::get_erase_value() const
 .text._ZNK16QSPIFBlockDevice4sizeEv
                0x0000000008011286        0xa /tmp/ccPT7ssV.ltrans3.ltrans.o
                0x0000000008011286                QSPIFBlockDevice::size() const
 .text._ZNK16QSPIFBlockDevice14get_erase_sizeEy
                0x0000000008011290       0x7a /tmp/ccPT7ssV.ltrans3.ltrans.o
                0x0000000008011290                QSPIFBlockDevice::get_erase_size(unsigned long long) const
 *fill*         0x000000000801130a        0x2 
 .text._ZNK16QSPIFBlockDevice8get_typeEv
                0x000000000801130c        0x8 /tmp/ccPT7ssV.ltrans3.ltrans.o
                0x000000000801130c                QSPIFBlockDevice::get_type() const
 .text._ZNK16QSPIFBlockDevice14get_erase_sizeEv
                0x0000000008011314        0x8 /tmp/ccPT7ssV.ltrans3.ltrans.o
                0x0000000008011314                QSPIFBlockDevice::get_erase_size() const
 .text._ZNK19FlashIAPBlockDevice13get_read_sizeEv
                0x000000000801131c        0x6 /tmp/ccPT7ssV.ltrans3.ltrans.o
                0x000000000801131c                QSPIFBlockDevice::get_program_size() const
                0x000000000801131c                FlashIAPBlockDevice::get_read_size() const
                0x000000000801131c                QSPIFBlockDevice::get_read_size() const
 .text._ZNK19FlashIAPBlockDevice14is_valid_eraseEyy
                0x0000000008011322       0x94 /tmp/ccPT7ssV.ltrans3.ltrans.o
                0x0000000008011322                FlashIAPBlockDevice::is_valid_erase(unsigned long long, unsigned long long) const
 *fill*         0x00000000080113b6        0x2 
 .text._ZNK19FlashIAPBlockDevice8get_typeEv
                0x00000000080113b8        0x8 /tmp/ccPT7ssV.ltrans3.ltrans.o
                0x00000000080113b8                FlashIAPBlockDevice::get_type() const
 .text._ZNK19FlashIAPBlockDevice4sizeEv
                0x00000000080113c0        0x6 /tmp/ccPT7ssV.ltrans3.ltrans.o
                0x00000000080113c0                FlashIAPBlockDevice::size() const
 .text._ZNK19FlashIAPBlockDevice15get_erase_valueEv
                0x00000000080113c6       0x10 /tmp/ccPT7ssV.ltrans3.ltrans.o
                0x00000000080113c6                FlashIAPBlockDevice::get_erase_value() const
 .text._ZNK19FlashIAPBlockDevice16get_program_sizeEv
                0x00000000080113d6       0x10 /tmp/ccPT7ssV.ltrans3.ltrans.o
                0x00000000080113d6                FlashIAPBlockDevice::get_program_size() const
 .text._ZN12DirectSerialD2Ev
                0x00000000080113e6        0x2 /tmp/ccPT7ssV.ltrans3.ltrans.o
 .text._ZN12DirectSerial5writeEPKvj
                0x00000000080113e8       0x30 /tmp/ccPT7ssV.ltrans3.ltrans.o
 .text._ZN4mbed11BlockDevice4syncEv
                0x0000000008011418        0x4 /tmp/ccPT7ssV.ltrans3.ltrans.o
                0x0000000008011418                mbed::BlockDevice::sync()
 .text._ZN4mbed16UnbufferedSerial6isattyEv
                0x000000000801141c        0x4 /tmp/ccPT7ssV.ltrans3.ltrans.o
 .text._ZN4mbed16UnbufferedSerial4sizeEv
                0x0000000008011420        0x6 /tmp/ccPT7ssV.ltrans3.ltrans.o
 .text._ZN4mbed16UnbufferedSerial4seekEli
                0x0000000008011426        0x6 /tmp/ccPT7ssV.ltrans3.ltrans.o
 .text._ZN4mbed10FileHandle12enable_inputEb
                0x000000000801142c        0x6 /tmp/ccPT7ssV.ltrans3.ltrans.o
                0x000000000801142c                mbed::FileHandle::enable_output(bool)
                0x000000000801142c                mbed::FileHandle::enable_input(bool)
 .text._ZNK4mbed10FileHandle4pollEs
                0x0000000008011432        0x4 /tmp/ccPT7ssV.ltrans3.ltrans.o
                0x0000000008011432                mbed::FileHandle::poll(short) const
 *fill*         0x0000000008011436        0x2 
 .text.mbed_mpu_enable_ram_xn
                0x0000000008011438       0x2c /tmp/ccPT7ssV.ltrans3.ltrans.o
 .text.mbed_mpu_enable_rom_wn
                0x0000000008011464       0x24 /tmp/ccPT7ssV.ltrans3.ltrans.o
 .text.block_us_ticker_free.lto_priv.306
                0x0000000008011488        0x2 /tmp/ccPT7ssV.ltrans3.ltrans.o
                0x0000000008011488                block_us_ticker_free.lto_priv.306
 .text._ZN4mbed18SlicingBlockDeviceD0Ev
                0x000000000801148a        0xc /tmp/ccPT7ssV.ltrans3.ltrans.o
                0x000000000801148a                mbed::SlicingBlockDevice::~SlicingBlockDevice()
 .text._ZN4mbed14MBRBlockDeviceD0Ev
                0x0000000008011496        0xc /tmp/ccPT7ssV.ltrans3.ltrans.o
                0x0000000008011496                mbed::MBRBlockDevice::~MBRBlockDevice()
 .text._ZN12DirectSerialD0Ev
                0x00000000080114a2        0xc /tmp/ccPT7ssV.ltrans3.ltrans.o
 .text._ZN4mbed14MBRBlockDevice6deinitEv
                0x00000000080114ae       0x26 /tmp/ccPT7ssV.ltrans3.ltrans.o
                0x00000000080114ae                mbed::MBRBlockDevice::deinit()
 .text._ZN16QSPIFBlockDevice28_qspi_send_read_sfdp_commandEyN4mbed20sfdp_cmd_addr_size_tEhhPvy
                0x00000000080114d4       0xdc /tmp/ccPT7ssV.ltrans3.ltrans.o
                0x00000000080114d4                QSPIFBlockDevice::_qspi_send_read_sfdp_command(unsigned long long, mbed::sfdp_cmd_addr_size_t, unsigned char, unsigned char, void*, unsigned long long)
 .text._ZNK19FlashIAPBlockDevice14get_erase_sizeEy
                0x00000000080115b0       0x18 /tmp/ccPT7ssV.ltrans3.ltrans.o
                0x00000000080115b0                FlashIAPBlockDevice::get_erase_size(unsigned long long) const
 .text._ZNK19FlashIAPBlockDevice14get_erase_sizeEv
                0x00000000080115c8       0x16 /tmp/ccPT7ssV.ltrans3.ltrans.o
                0x00000000080115c8                FlashIAPBlockDevice::get_erase_size() const
 .text._ZN19FlashIAPBlockDevice5eraseEyy
                0x00000000080115de       0x36 /tmp/ccPT7ssV.ltrans3.ltrans.o
                0x00000000080115de                FlashIAPBlockDevice::erase(unsigned long long, unsigned long long)
 .text._ZN19FlashIAPBlockDevice7programEPKvyy
                0x0000000008011614       0x3a /tmp/ccPT7ssV.ltrans3.ltrans.o
                0x0000000008011614                FlashIAPBlockDevice::program(void const*, unsigned long long, unsigned long long)
 .text._ZN19FlashIAPBlockDevice6deinitEv
                0x000000000801164e       0x28 /tmp/ccPT7ssV.ltrans3.ltrans.o
                0x000000000801164e                FlashIAPBlockDevice::deinit()
 .text._ZN19FlashIAPBlockDevice4initEv
                0x0000000008011676       0x9e /tmp/ccPT7ssV.ltrans3.ltrans.o
                0x0000000008011676                FlashIAPBlockDevice::init()
 .text.mbed_minimal_putchar
                0x0000000008011714       0x36 /tmp/ccPT7ssV.ltrans3.ltrans.o
 *fill*         0x000000000801174a        0x2 
 .text.mbed_minimal_formatted_string_integer
                0x000000000801174c      0x11c /tmp/ccPT7ssV.ltrans3.ltrans.o
 .text.mbed_minimal_formatted_string
                0x0000000008011868      0x2d0 /tmp/ccPT7ssV.ltrans3.ltrans.o
 .text.__cxa_pure_virtual
                0x0000000008011b38        0x8 /tmp/ccPT7ssV.ltrans3.ltrans.o
                0x0000000008011b38                __cxa_pure_virtual
 .text._ZNK12DirectSerial4pollEs
                0x0000000008011b40       0x38 /tmp/ccPT7ssV.ltrans3.ltrans.o
 .text._ZN12DirectSerial4readEPvj
                0x0000000008011b78       0x74 /tmp/ccPT7ssV.ltrans3.ltrans.o
 .text._ZN4mbed8internal8SysTimerISt5ratioILx1ELx1000EELb1EE7handlerEv
                0x0000000008011bec       0x64 /tmp/ccPT7ssV.ltrans3.ltrans.o
 .text._ZNK4mbed8CallbackIFiyNS_20sfdp_cmd_addr_size_tEhhPvyEE4callEyS1_hhS2_y
                0x0000000008011c50       0x30 /tmp/ccPT7ssV.ltrans3.ltrans.o
 .text._ZNK4mbed8CallbackIFiyNS_20sfdp_cmd_addr_size_tEhhPvyEEclEyS1_hhS2_y
                0x0000000008011c80       0x1a /tmp/ccPT7ssV.ltrans3.ltrans.o
 .text._ZL9clst2sectP5FATFSm.lto_priv.333
                0x0000000008011c9a       0x16 /tmp/ccPT7ssV.ltrans3.ltrans.o
                0x0000000008011c9a                clst2sect(FATFS*, unsigned long) [clone .lto_priv.333]
 .text._ZL11sync_windowP5FATFS.lto_priv.346
                0x0000000008011cb0       0x40 /tmp/ccPT7ssV.ltrans3.ltrans.o
                0x0000000008011cb0                sync_window(FATFS*) [clone .lto_priv.346]
 .text._ZL9dir_clearP5FATFSm.lto_priv.351
                0x0000000008011cf0       0x4c /tmp/ccPT7ssV.ltrans3.ltrans.o
                0x0000000008011cf0                dir_clear(FATFS*, unsigned long) [clone .lto_priv.351]
 .text._ZL11move_windowP5FATFSm.lto_priv.334
                0x0000000008011d3c       0x34 /tmp/ccPT7ssV.ltrans3.ltrans.o
                0x0000000008011d3c                move_window(FATFS*, unsigned long) [clone .lto_priv.334]
 .text._ZL8st_dwordPhm.lto_priv.349
                0x0000000008011d70       0x10 /tmp/ccPT7ssV.ltrans3.ltrans.o
                0x0000000008011d70                st_dword(unsigned char*, unsigned long) [clone .lto_priv.349]
 .text._ZL7sync_fsP5FATFS.lto_priv.350
                0x0000000008011d80       0x94 /tmp/ccPT7ssV.ltrans3.ltrans.o
                0x0000000008011d80                sync_fs(FATFS*) [clone .lto_priv.350]
 .text._ZL8ld_dwordPKh.lto_priv.348
                0x0000000008011e14       0x10 /tmp/ccPT7ssV.ltrans3.ltrans.o
                0x0000000008011e14                ld_dword(unsigned char const*) [clone .lto_priv.348]
 .text._ZL7put_fatP5FATFSmm
                0x0000000008011e24      0x118 /tmp/ccPT7ssV.ltrans3.ltrans.o
 .text._ZL12create_chainP7FFOBJIDm.lto_priv.347
                0x0000000008011f3c       0xe8 /tmp/ccPT7ssV.ltrans3.ltrans.o
                0x0000000008011f3c                create_chain(FFOBJID*, unsigned long) [clone .lto_priv.347]
 .text._ZL8dir_nextP9FATFS_DIRi.lto_priv.335
                0x0000000008012024       0xbc /tmp/ccPT7ssV.ltrans3.ltrans.o
                0x0000000008012024                dir_next(FATFS_DIR*, int) [clone .lto_priv.335]
 .text._ZL12remove_chainP7FFOBJIDmm.lto_priv.345
                0x00000000080120e0       0xd0 /tmp/ccPT7ssV.ltrans3.ltrans.o
                0x00000000080120e0                remove_chain(FFOBJID*, unsigned long, unsigned long) [clone .lto_priv.345]
 .text._ZN4mbed18SlicingBlockDeviceD2Ev.lto_priv.410
                0x00000000080121b0        0x2 /tmp/ccPT7ssV.ltrans3.ltrans.o
                0x00000000080121b0                mbed::SlicingBlockDevice::~SlicingBlockDevice() [clone .lto_priv.405]
                0x00000000080121b0                mbed::SlicingBlockDevice::~SlicingBlockDevice() [clone .lto_priv.410]
 .text._ZN4mbed14MBRBlockDeviceD2Ev.lto_priv.409
                0x00000000080121b2        0x2 /tmp/ccPT7ssV.ltrans3.ltrans.o
                0x00000000080121b2                mbed::MBRBlockDevice::~MBRBlockDevice() [clone .lto_priv.409]
                0x00000000080121b2                mbed::MBRBlockDevice::~MBRBlockDevice() [clone .lto_priv.404]
 .text._ZN4mbed8CallbackIFiyNS_20sfdp_cmd_addr_size_tEhhPvyEE8generateIZNS4_C4IP16QSPIFBlockDeviceMS7_FiyS1_hhS2_yELi0EEET_T0_EUlyS1_hhS2_yE_vEEvOSB_
                0x00000000080121b4       0x14 /tmp/ccPT7ssV.ltrans3.ltrans.o
                0x00000000080121b4                void mbed::Callback<int (unsigned long long, mbed::sfdp_cmd_addr_size_t, unsigned char, unsigned char, void*, unsigned long long)>::generate<mbed::Callback<int (unsigned long long, mbed::sfdp_cmd_addr_size_t, unsigned char, unsigned char, void*, unsigned long long)>::generate<QSPIFBlockDevice*, int (QSPIFBlockDevice::*)(unsigned long long, mbed::sfdp_cmd_addr_size_t, unsigned char, unsigned char, void*, unsigned long long), 0>(QSPIFBlockDevice*, int (QSPIFBlockDevice::*)(unsigned long long, mbed::sfdp_cmd_addr_size_t, unsigned char, unsigned char, void*, unsigned long long))::{lambda(unsigned long long, mbed::sfdp_cmd_addr_size_t, unsigned char, unsigned char, void*, unsigned long long)#1}, void>(mbed::Callback<int (unsigned long long, mbed::sfdp_cmd_addr_size_t, unsigned char, unsigned char, void*, unsigned long long)>::generate<QSPIFBlockDevice*, int (QSPIFBlockDevice::*)(unsigned long long, mbed::sfdp_cmd_addr_size_t, unsigned char, unsigned char, void*, unsigned long long), 0>(QSPIFBlockDevice*, int (QSPIFBlockDevice::*)(unsigned long long, mbed::sfdp_cmd_addr_size_t, unsigned char, unsigned char, void*, unsigned long long))::{lambda(unsigned long long, mbed::sfdp_cmd_addr_size_t, unsigned char, unsigned char, void*, unsigned long long)#1}&&)
 .text._ZN19FlashIAPBlockDeviceD2Ev
                0x00000000080121c8       0x14 /tmp/ccPT7ssV.ltrans3.ltrans.o
                0x00000000080121c8                FlashIAPBlockDevice::~FlashIAPBlockDevice()
                0x00000000080121c8                FlashIAPBlockDevice::~FlashIAPBlockDevice()
 .text._ZN19FlashIAPBlockDeviceD0Ev
                0x00000000080121dc       0x12 /tmp/ccPT7ssV.ltrans3.ltrans.o
                0x00000000080121dc                FlashIAPBlockDevice::~FlashIAPBlockDevice()
 *fill*         0x00000000080121ee        0x2 
 .text._ZN4rtos5Mutex6unlockEv
                0x00000000080121f0       0x2c /tmp/ccPT7ssV.ltrans3.ltrans.o
                0x00000000080121f0                rtos::Mutex::unlock()
 .text._ZN4rtos5Mutex4lockEv
                0x000000000801221c       0x30 /tmp/ccPT7ssV.ltrans3.ltrans.o
                0x000000000801221c                rtos::Mutex::lock()
 .text._ZN4rtos6Thread6_thunkEPv
                0x000000000801224c       0x26 /tmp/ccPT7ssV.ltrans3.ltrans.o
                0x000000000801224c                rtos::Thread::_thunk(void*)
 *fill*         0x0000000008012272        0x2 
 .text._ZN4mbed8FileBaseD2Ev
                0x0000000008012274       0x94 /tmp/ccPT7ssV.ltrans3.ltrans.o
                0x0000000008012274                mbed::FileBase::~FileBase()
                0x0000000008012274                mbed::FileBase::~FileBase()
 .text._ZN4mbed8FileBaseD0Ev
                0x0000000008012308       0x12 /tmp/ccPT7ssV.ltrans3.ltrans.o
                0x0000000008012308                mbed::FileBase::~FileBase()
 *fill*         0x000000000801231a        0x2 
 .text._ZN4rtos5MutexC2Ev
                0x000000000801231c       0x2c /tmp/ccPT7ssV.ltrans3.ltrans.o
                0x000000000801231c                rtos::Mutex::Mutex()
                0x000000000801231c                rtos::Mutex::Mutex()
 .text.__wrap_snprintf
                0x0000000008012348       0x1e /tmp/ccPT7ssV.ltrans3.ltrans.o
                0x0000000008012348                __wrap_snprintf
 *fill*         0x0000000008012366        0x2 
 .text.__wrap_printf
                0x0000000008012368       0x2c /tmp/ccPT7ssV.ltrans3.ltrans.o
                0x0000000008012368                __wrap_printf
 .text._wait_us_ticks
                0x0000000008012394       0x14 /tmp/ccPT7ssV.ltrans3.ltrans.o
                0x0000000008012394                _wait_us_ticks
 .text._Znwj    0x00000000080123a8       0x18 /tmp/ccPT7ssV.ltrans3.ltrans.o
                0x00000000080123a8                operator new(unsigned int)
 .text._ZN4mbed14MBRBlockDevice4initEv
                0x00000000080123c0      0x138 /tmp/ccPT7ssV.ltrans3.ltrans.o
                0x00000000080123c0                mbed::MBRBlockDevice::init()
 .text.__env_unlock
                0x00000000080124f8        0xc /tmp/ccPT7ssV.ltrans3.ltrans.o
                0x00000000080124f8                __env_unlock
 .text.__env_lock
                0x0000000008012504        0xc /tmp/ccPT7ssV.ltrans3.ltrans.o
                0x0000000008012504                __env_lock
 .text.__malloc_unlock
                0x0000000008012510        0xc /tmp/ccPT7ssV.ltrans3.ltrans.o
                0x0000000008012510                __malloc_unlock
 .text.__malloc_lock
                0x000000000801251c        0xc /tmp/ccPT7ssV.ltrans3.ltrans.o
                0x000000000801251c                __malloc_lock
 .text.__wrap_atexit
                0x0000000008012528        0x4 /tmp/ccPT7ssV.ltrans3.ltrans.o
                0x0000000008012528                __wrap_atexit
 .text._sbrk    0x000000000801252c       0x2c /tmp/ccPT7ssV.ltrans3.ltrans.o
                0x000000000801252c                _sbrk
 .text._ZL16singleton_unlockv.lto_priv.356.lto_priv.380
                0x0000000008012558       0x10 /tmp/ccPT7ssV.ltrans3.ltrans.o
                0x0000000008012558                singleton_unlock() [clone .lto_priv.356] [clone .lto_priv.380]
                0x0000000008012558                singleton_unlock() [clone .lto_priv.357] [clone .lto_priv.406]
 .text._ZL14singleton_lockv.lto_priv.358.lto_priv.379
                0x0000000008012568       0x10 /tmp/ccPT7ssV.ltrans3.ltrans.o
                0x0000000008012568                singleton_lock() [clone .lto_priv.358] [clone .lto_priv.379]
 .text.__cxa_guard_acquire
                0x0000000008012578       0x2e /tmp/ccPT7ssV.ltrans3.ltrans.o
                0x0000000008012578                __cxa_guard_acquire
 *fill*         0x00000000080125a6        0x2 
 .text.core_util_critical_section_exit
                0x00000000080125a8       0x28 /tmp/ccPT7ssV.ltrans3.ltrans.o
                0x00000000080125a8                core_util_critical_section_exit
 .text.core_util_critical_section_enter
                0x00000000080125d0       0x30 /tmp/ccPT7ssV.ltrans3.ltrans.o
                0x00000000080125d0                core_util_critical_section_enter
 .text.mbed_mpu_manager_unlock_rom_write
                0x0000000008012600       0x24 /tmp/ccPT7ssV.ltrans3.ltrans.o
                0x0000000008012600                mbed_mpu_manager_unlock_rom_write
 .text.mbed_mpu_manager_lock_rom_write
                0x0000000008012624       0x24 /tmp/ccPT7ssV.ltrans3.ltrans.o
                0x0000000008012624                mbed_mpu_manager_lock_rom_write
 .text.mbed_mpu_manager_unlock_ram_execution
                0x0000000008012648       0x24 /tmp/ccPT7ssV.ltrans3.ltrans.o
                0x0000000008012648                mbed_mpu_manager_unlock_ram_execution
 .text.mbed_mpu_manager_lock_ram_execution
                0x000000000801266c       0x24 /tmp/ccPT7ssV.ltrans3.ltrans.o
                0x000000000801266c                mbed_mpu_manager_lock_ram_execution
 .text._ZN19FlashIAPBlockDevice4readEPvyy
                0x0000000008012690       0x6c /tmp/ccPT7ssV.ltrans3.ltrans.o
                0x0000000008012690                FlashIAPBlockDevice::read(void*, unsigned long long, unsigned long long)
 .text.handle_error.isra.0.lto_priv.315
                0x00000000080126fc       0x64 /tmp/ccPT7ssV.ltrans3.ltrans.o
                0x00000000080126fc                handle_error.isra.0.lto_priv.315
 .text.gpio_write.lto_priv.314
                0x0000000008012760       0x30 /tmp/ccPT7ssV.ltrans3.ltrans.o
                0x0000000008012760                gpio_write.lto_priv.314
 .text.mbed_die
                0x0000000008012790       0xa4 /tmp/ccPT7ssV.ltrans3.ltrans.o
 .text.__wrap_exit
                0x0000000008012834        0xa /tmp/ccPT7ssV.ltrans3.ltrans.o
                0x0000000008012834                __wrap_exit
 *fill*         0x000000000801283e        0x2 
 .text.mbed_halt_system.lto_priv.316
                0x0000000008012840       0x40 /tmp/ccPT7ssV.ltrans3.ltrans.o
                0x0000000008012840                mbed_halt_system.lto_priv.316
 .text.error    0x0000000008012880       0x2c /tmp/ccPT7ssV.ltrans3.ltrans.o
                0x0000000008012880                error
 .text.mbed_start_application
                0x00000000080128ac       0xb4 /tmp/ccPT7ssV.ltrans3.ltrans.o
                0x00000000080128ac                mbed_start_application
 .text.__wrap__calloc_r
                0x0000000008012960        0x4 /tmp/ccPT7ssV.ltrans3.ltrans.o
                0x0000000008012960                __wrap__calloc_r
 .text.__wrap__free_r
                0x0000000008012964        0x4 /tmp/ccPT7ssV.ltrans3.ltrans.o
                0x0000000008012964                __wrap__free_r
 .text.__wrap__realloc_r
                0x0000000008012968        0x4 /tmp/ccPT7ssV.ltrans3.ltrans.o
                0x0000000008012968                __wrap__realloc_r
 .text.__wrap__malloc_r
                0x000000000801296c        0x4 /tmp/ccPT7ssV.ltrans3.ltrans.o
                0x000000000801296c                __wrap__malloc_r
 .text._ZN4mbed8FilePath10fileSystemEv
                0x0000000008012970       0x12 /tmp/ccPT7ssV.ltrans3.ltrans.o
                0x0000000008012970                mbed::FilePath::fileSystem()
 *fill*         0x0000000008012982        0x2 
 .text._ZN4mbed8FilePathC2EPKc
                0x0000000008012984       0xb0 /tmp/ccPT7ssV.ltrans3.ltrans.o
                0x0000000008012984                mbed::FilePath::FilePath(char const*)
                0x0000000008012984                mbed::FilePath::FilePath(char const*)
 .text.update_present_time.lto_priv.377
                0x0000000008012a34       0x90 /tmp/ccPT7ssV.ltrans3.ltrans.o
                0x0000000008012a34                update_present_time.lto_priv.377
 .text.schedule_interrupt.lto_priv.376
                0x0000000008012ac4      0x106 /tmp/ccPT7ssV.ltrans3.ltrans.o
                0x0000000008012ac4                schedule_interrupt.lto_priv.376
 .text.ticker_irq_handler
                0x0000000008012bca       0x62 /tmp/ccPT7ssV.ltrans3.ltrans.o
                0x0000000008012bca                ticker_irq_handler
 .text.initialize.lto_priv.378
                0x0000000008012c2c      0x12c /tmp/ccPT7ssV.ltrans3.ltrans.o
                0x0000000008012c2c                initialize.lto_priv.378
 .text.ticker_read_us
                0x0000000008012d58       0x1e /tmp/ccPT7ssV.ltrans3.ltrans.o
                0x0000000008012d58                ticker_read_us
 .text._ZN4mbed8internal8SysTimerISt5ratioILx1ELx1000EELb1EE19update_and_get_tickEv
                0x0000000008012d76       0x9a /tmp/ccPT7ssV.ltrans3.ltrans.o
                0x0000000008012d76                mbed::internal::SysTimer<std::ratio<1ll, 1000ll>, true>::update_and_get_tick()
 .text._ZN4mbed8internal13init_os_timerEv
                0x0000000008012e10       0x58 /tmp/ccPT7ssV.ltrans3.ltrans.o
                0x0000000008012e10                mbed::internal::init_os_timer()
 .text.pinmap_find_function
                0x0000000008012e68       0x18 /tmp/ccPT7ssV.ltrans3.ltrans.o
                0x0000000008012e68                pinmap_find_function
 .text.pinmap_peripheral
                0x0000000008012e80       0x2c /tmp/ccPT7ssV.ltrans3.ltrans.o
                0x0000000008012e80                pinmap_peripheral
 .text.pinmap_merge
                0x0000000008012eac       0x20 /tmp/ccPT7ssV.ltrans3.ltrans.o
                0x0000000008012eac                pinmap_merge
 .text._ZN4mbed16mbed_file_handleEi
                0x0000000008012ecc      0x2d0 /tmp/ccPT7ssV.ltrans3.ltrans.o
 .text._fstat   0x000000000801319c       0x3c /tmp/ccPT7ssV.ltrans3.ltrans.o
                0x000000000801319c                _fstat
 .text._lseek   0x00000000080131d8       0x34 /tmp/ccPT7ssV.ltrans3.ltrans.o
                0x00000000080131d8                _lseek
 .text.isatty   0x000000000801320c       0x2c /tmp/ccPT7ssV.ltrans3.ltrans.o
 .text._isatty  0x0000000008013238        0x4 /tmp/ccPT7ssV.ltrans3.ltrans.o
                0x0000000008013238                _isatty
 .text.read     0x000000000801323c       0x34 /tmp/ccPT7ssV.ltrans3.ltrans.o
 .text._read    0x0000000008013270       0x6c /tmp/ccPT7ssV.ltrans3.ltrans.o
                0x0000000008013270                _read
 .text.write    0x00000000080132dc       0x34 /tmp/ccPT7ssV.ltrans3.ltrans.o
 .text._write   0x0000000008013310       0xbc /tmp/ccPT7ssV.ltrans3.ltrans.o
                0x0000000008013310                _write
 .text._close   0x00000000080133cc       0x3c /tmp/ccPT7ssV.ltrans3.ltrans.o
                0x00000000080133cc                _close
 .text._open    0x0000000008013408      0x120 /tmp/ccPT7ssV.ltrans3.ltrans.o
                0x0000000008013408                _open
 .text.equeue_enqueue
                0x0000000008013528       0x8e /tmp/ccPT7ssV.ltrans3.ltrans.o
                0x0000000008013528                equeue_enqueue
 *fill*         0x00000000080135b6        0x2 
 .text._ZN4rtos6ThreadD2Ev
                0x00000000080135b8       0x84 /tmp/ccPT7ssV.ltrans3.ltrans.o
                0x00000000080135b8                rtos::Thread::~Thread()
                0x00000000080135b8                rtos::Thread::~Thread()
 .text._ZN4rtos6ThreadD0Ev
                0x000000000801363c       0x12 /tmp/ccPT7ssV.ltrans3.ltrans.o
                0x000000000801363c                rtos::Thread::~Thread()
 *fill*         0x000000000801364e        0x2 
 .text.equeue_tick
                0x0000000008013650       0x70 /tmp/ccPT7ssV.ltrans3.ltrans.o
                0x0000000008013650                equeue_tick
 .text._ZN16QSPIFBlockDevice13_is_mem_readyEv
                0x00000000080136c0       0x74 /tmp/ccPT7ssV.ltrans3.ltrans.o
 .text._ZN16QSPIFBlockDevice17_set_write_enableEv
                0x0000000008013734       0x80 /tmp/ccPT7ssV.ltrans3.ltrans.o
 .text._ZN16QSPIFBlockDevice31_qspi_update_4byte_ext_addr_regEy
                0x00000000080137b4       0x68 /tmp/ccPT7ssV.ltrans3.ltrans.o
 .text._ZN16QSPIFBlockDevice26_qspi_send_general_commandEiyPKcyS1_y
                0x000000000801381c       0x3a /tmp/ccPT7ssV.ltrans3.ltrans.o
 .text.unlikely._ZN16QSPIFBlockDevice28_qspi_write_status_registersEPh
                0x0000000008013856       0xae /tmp/ccPT7ssV.ltrans3.ltrans.o
 .text.unlikely._ZN16QSPIFBlockDevice27_qspi_read_status_registersEPh
                0x0000000008013904       0x5a /tmp/ccPT7ssV.ltrans3.ltrans.o
 *fill*         0x000000000801395e        0x2 
 .text._ZN16QSPIFBlockDevice6deinitEv
                0x0000000008013960       0xc8 /tmp/ccPT7ssV.ltrans3.ltrans.o
                0x0000000008013960                QSPIFBlockDevice::deinit()
 .text._ZN16QSPIFBlockDevice4readEPvyy
                0x0000000008013a28       0xa2 /tmp/ccPT7ssV.ltrans3.ltrans.o
                0x0000000008013a28                QSPIFBlockDevice::read(void*, unsigned long long, unsigned long long)
 *fill*         0x0000000008013aca        0x2 
 .text._ZN16QSPIFBlockDevice5eraseEyy
                0x0000000008013acc      0x1f4 /tmp/ccPT7ssV.ltrans3.ltrans.o
                0x0000000008013acc                QSPIFBlockDevice::erase(unsigned long long, unsigned long long)
 .text._ZN16QSPIFBlockDevice7programEPKvyy
                0x0000000008013cc0      0x118 /tmp/ccPT7ssV.ltrans3.ltrans.o
                0x0000000008013cc0                QSPIFBlockDevice::program(void const*, unsigned long long, unsigned long long)
 .text._ZN16QSPIFBlockDevice4initEv
                0x0000000008013dd8      0xc04 /tmp/ccPT7ssV.ltrans3.ltrans.o
                0x0000000008013dd8                QSPIFBlockDevice::init()
 .text._ZN4mbed10FileHandle5sigioENS_8CallbackIFvvEEE
                0x00000000080149dc        0xc /tmp/ccPT7ssV.ltrans4.ltrans.o
                0x00000000080149dc                mbed::FileHandle::sigio(mbed::Callback<void ()>)
 .text._ZNK4mbed10FileHandle11is_blockingEv
                0x00000000080149e8        0x4 /tmp/ccPT7ssV.ltrans4.ltrans.o
                0x00000000080149e8                mbed::FileHandle::is_blocking() const
 .text._ZN4mbed10FileHandle12set_blockingEb
                0x00000000080149ec        0xc /tmp/ccPT7ssV.ltrans4.ltrans.o
                0x00000000080149ec                mbed::FileHandle::set_blocking(bool)
 .text._ZN4mbed10TimerEvent3irqEm
                0x00000000080149f8        0x6 /tmp/ccPT7ssV.ltrans4.ltrans.o
 .text._ZN4mbed10FileHandle8truncateEl
                0x00000000080149fe        0x6 /tmp/ccPT7ssV.ltrans4.ltrans.o
                0x00000000080149fe                mbed::FileHandle::truncate(long)
 .text._ZN4mbed10FileHandle6rewindEv
                0x0000000008014a04        0xa /tmp/ccPT7ssV.ltrans4.ltrans.o
                0x0000000008014a04                mbed::FileHandle::rewind()
 .text._ZN4mbed10FileHandle4tellEv
                0x0000000008014a0e        0xa /tmp/ccPT7ssV.ltrans4.ltrans.o
                0x0000000008014a0e                mbed::FileHandle::tell()
 .text.mbedtls_md_starts
                0x0000000008014a18       0xcc /tmp/ccPT7ssV.ltrans4.ltrans.o
 .text.sub32    0x0000000008014ae4       0x16 /tmp/ccPT7ssV.ltrans4.ltrans.o
 .text.add32    0x0000000008014afa       0x18 /tmp/ccPT7ssV.ltrans4.ltrans.o
 *fill*         0x0000000008014b12        0x2 
 .text._ZN4mbed4QSPI11_initializeEv
                0x0000000008014b14      0x214 /tmp/ccPT7ssV.ltrans4.ltrans.o
                0x0000000008014b14                mbed::QSPI::_initialize()
 .text.ecp_mod_p256
                0x0000000008014d28      0x4c6 /tmp/ccPT7ssV.ltrans4.ltrans.o
 .text.mbedtls_ecp_set_zero
                0x00000000080151ee       0x28 /tmp/ccPT7ssV.ltrans4.ltrans.o
 .text.mbedtls_mpi_fill_random
                0x0000000008015216       0x6c /tmp/ccPT7ssV.ltrans4.ltrans.o
 .text.mbedtls_mpi_add_mpi
                0x0000000008015282       0x44 /tmp/ccPT7ssV.ltrans4.ltrans.o
 .text._ZN4mbed10TimerEvent6removeEv
                0x00000000080152c6       0x3a /tmp/ccPT7ssV.ltrans4.ltrans.o
                0x00000000080152c6                mbed::TimerEvent::remove()
 .text._ZN4mbed10TimerEvent15insert_absoluteENSt6chrono10time_pointINS_15TickerDataClockENS1_8durationIxSt5ratioILx1ELx1000000EEEEEE
                0x0000000008015300       0x62 /tmp/ccPT7ssV.ltrans4.ltrans.o
                0x0000000008015300                mbed::TimerEvent::insert_absolute(std::chrono::time_point<mbed::TickerDataClock, std::chrono::duration<long long, std::ratio<1ll, 1000000ll> > >)
 .text._ZN4mbed10TickerBase7handlerEv
                0x0000000008015362       0x34 /tmp/ccPT7ssV.ltrans4.ltrans.o
                0x0000000008015362                mbed::TickerBase::handler()
 *fill*         0x0000000008015396        0x2 
 .text._ZN4mbed10TimerEventC2EPK13ticker_data_t
                0x0000000008015398       0x3c /tmp/ccPT7ssV.ltrans4.ltrans.o
                0x0000000008015398                mbed::TimerEvent::TimerEvent(ticker_data_t const*)
 .text._ZN4mbed8CallbackIFvvEEaSEDn.isra.2.lto_priv.372.lto_priv.411
                0x00000000080153d4        0xc /tmp/ccPT7ssV.ltrans4.ltrans.o
                0x00000000080153d4                mbed::Callback<void ()>::operator=(decltype(nullptr)) [clone .isra.2] [clone .lto_priv.373] [clone .lto_priv.408]
                0x00000000080153d4                mbed::Callback<void ()>::operator=(decltype(nullptr)) [clone .isra.2] [clone .lto_priv.372] [clone .lto_priv.411]
 .text._ZN4mbed11TimeoutBase7handlerEv
                0x00000000080153e0       0x2a /tmp/ccPT7ssV.ltrans4.ltrans.o
                0x00000000080153e0                mbed::TimeoutBase::handler()
 .text._ZN4mbed10TickerBase6attachENS_8CallbackIFvvEEENSt6chrono8durationIxSt5ratioILx1ELx1000000EEEE
                0x000000000801540a       0x4a /tmp/ccPT7ssV.ltrans4.ltrans.o
                0x000000000801540a                mbed::TickerBase::attach(mbed::Callback<void ()>, std::chrono::duration<long long, std::ratio<1ll, 1000000ll> >)
 .text._ZN4mbed4QSPI19_build_qspi_commandEiii
                0x0000000008015454       0x7a /tmp/ccPT7ssV.ltrans4.ltrans.o
                0x0000000008015454                mbed::QSPI::_build_qspi_command(int, int, int)
 .text._ZN4mbed8CallbackIFvvEEC2Ev.lto_priv.342
                0x00000000080154ce        0xc /tmp/ccPT7ssV.ltrans4.ltrans.o
                0x00000000080154ce                mbed::Callback<void (int)>::Callback()
                0x00000000080154ce                mbed::Callback<void ()>::Callback() [clone .lto_priv.342]
                0x00000000080154ce                mbed::Callback<void ()>::Callback()
 .text._ZN4mbed6detail12CallbackBase7controlEv
                0x00000000080154da        0x4 /tmp/ccPT7ssV.ltrans4.ltrans.o
                0x00000000080154da                mbed::detail::CallbackBase::control() const
                0x00000000080154da                mbed::detail::CallbackBase::control()
 *fill*         0x00000000080154de        0x2 
 .text.mbedtls_platform_zeroize
                0x00000000080154e0       0x14 /tmp/ccPT7ssV.ltrans4.ltrans.o
                0x00000000080154e0                mbedtls_platform_zeroize
 .text.mbedtls_internal_sha256_process
                0x00000000080154f4      0x6d0 /tmp/ccPT7ssV.ltrans4.ltrans.o
 .text.mbedtls_sha256_update_ret.part.0
                0x0000000008015bc4       0x74 /tmp/ccPT7ssV.ltrans4.ltrans.o
                0x0000000008015bc4                mbedtls_sha256_update_ret.part.0
 .text.mbedtls_md_update
                0x0000000008015c38       0x2c /tmp/ccPT7ssV.ltrans4.ltrans.o
 .text.mbedtls_md_hmac_reset
                0x0000000008015c64       0x2c /tmp/ccPT7ssV.ltrans4.ltrans.o
 .text.mbedtls_sha256_finish_ret
                0x0000000008015c90      0x12a /tmp/ccPT7ssV.ltrans4.ltrans.o
                0x0000000008015c90                mbedtls_sha256_finish_ret
 *fill*         0x0000000008015dba        0x2 
 .text.mbedtls_md_finish
                0x0000000008015dbc       0x1c /tmp/ccPT7ssV.ltrans4.ltrans.o
 .text.mbedtls_md_hmac_finish
                0x0000000008015dd8       0x54 /tmp/ccPT7ssV.ltrans4.ltrans.o
                0x0000000008015dd8                mbedtls_md_hmac_finish
 .text.mbedtls_md_hmac_update
                0x0000000008015e2c       0x20 /tmp/ccPT7ssV.ltrans4.ltrans.o
                0x0000000008015e2c                mbedtls_md_hmac_update
 .text.mbedtls_md_hmac_starts
                0x0000000008015e4c       0xc0 /tmp/ccPT7ssV.ltrans4.ltrans.o
                0x0000000008015e4c                mbedtls_md_hmac_starts
 .text.mbedtls_md_free
                0x0000000008015f0c       0x44 /tmp/ccPT7ssV.ltrans4.ltrans.o
                0x0000000008015f0c                mbedtls_md_free
 .text.mbedtls_hmac_drbg_update_ret
                0x0000000008015f50       0xd0 /tmp/ccPT7ssV.ltrans4.ltrans.o
                0x0000000008015f50                mbedtls_hmac_drbg_update_ret
 .text.ecp_drbg_random.lto_priv.298
                0x0000000008016020       0x98 /tmp/ccPT7ssV.ltrans4.ltrans.o
                0x0000000008016020                ecp_drbg_random.lto_priv.298
 .text.mbedtls_ecp_group_load.part.1
                0x00000000080160b8       0x70 /tmp/ccPT7ssV.ltrans4.ltrans.o
                0x00000000080160b8                mbedtls_ecp_group_load.part.1
 .text.mbedtls_ecp_point_free.part.9
                0x0000000008016128       0x1c /tmp/ccPT7ssV.ltrans4.ltrans.o
                0x0000000008016128                mbedtls_ecp_point_free.part.9
 .text.mbedtls_mpi_add_mod.part.3.lto_priv.344
                0x0000000008016144       0x26 /tmp/ccPT7ssV.ltrans4.ltrans.o
                0x0000000008016144                mbedtls_mpi_add_mod.part.3.lto_priv.344
                0x0000000008016144                mbedtls_mpi_shift_l_mod.part.4.lto_priv.318
 .text.mbedtls_mpi_add_mod.lto_priv.329
                0x000000000801616a       0x20 /tmp/ccPT7ssV.ltrans4.ltrans.o
                0x000000000801616a                mbedtls_mpi_add_mod.lto_priv.329
 .text.mbedtls_ecp_copy
                0x000000000801618a       0x2c /tmp/ccPT7ssV.ltrans4.ltrans.o
                0x000000000801618a                mbedtls_ecp_copy
 .text.mbedtls_ecp_point_free
                0x00000000080161b6        0x8 /tmp/ccPT7ssV.ltrans4.ltrans.o
                0x00000000080161b6                mbedtls_ecp_point_free
 .text.mbedtls_ecp_group_free
                0x00000000080161be       0x62 /tmp/ccPT7ssV.ltrans4.ltrans.o
                0x00000000080161be                mbedtls_ecp_group_free
 .text.mbedtls_ecp_point_init
                0x0000000008016220       0x18 /tmp/ccPT7ssV.ltrans4.ltrans.o
                0x0000000008016220                mbedtls_ecp_point_init
 .text.mbedtls_ecp_group_init
                0x0000000008016238       0x3c /tmp/ccPT7ssV.ltrans4.ltrans.o
                0x0000000008016238                mbedtls_ecp_group_init
 .text.mbedtls_ecp_get_type
                0x0000000008016274       0x14 /tmp/ccPT7ssV.ltrans4.ltrans.o
                0x0000000008016274                mbedtls_ecp_get_type
 .text.mbedtls_ecp_check_privkey
                0x0000000008016288       0x84 /tmp/ccPT7ssV.ltrans4.ltrans.o
                0x0000000008016288                mbedtls_ecp_check_privkey
 .text.mbedtls_ecp_point_read_binary
                0x000000000801630c      0x150 /tmp/ccPT7ssV.ltrans4.ltrans.o
                0x000000000801630c                mbedtls_ecp_point_read_binary
 .text.ecp_drbg_seed.lto_priv.319
                0x000000000801645c       0x68 /tmp/ccPT7ssV.ltrans4.ltrans.o
                0x000000000801645c                ecp_drbg_seed.lto_priv.319
 .text.mbedtls_mpi_mul_mpi
                0x00000000080164c4      0x2a6 /tmp/ccPT7ssV.ltrans4.ltrans.o
                0x00000000080164c4                mbedtls_mpi_mul_mpi
 .text.mbedtls_mpi_mul_int
                0x000000000801676a       0x1a /tmp/ccPT7ssV.ltrans4.ltrans.o
 .text.mbedtls_mpi_sub_mpi
                0x0000000008016784       0x46 /tmp/ccPT7ssV.ltrans4.ltrans.o
                0x0000000008016784                mbedtls_mpi_sub_mpi
 .text.ecp_safe_invert_jac.lto_priv.325
                0x00000000080167ca       0x48 /tmp/ccPT7ssV.ltrans4.ltrans.o
                0x00000000080167ca                ecp_safe_invert_jac.lto_priv.325
 .text.ecp_select_comb.lto_priv.326
                0x0000000008016812       0x64 /tmp/ccPT7ssV.ltrans4.ltrans.o
                0x0000000008016812                ecp_select_comb.lto_priv.326
 .text.mbedtls_mpi_sub_mod.lto_priv.330
                0x0000000008016876       0x3a /tmp/ccPT7ssV.ltrans4.ltrans.o
                0x0000000008016876                mbedtls_mpi_sub_mod.lto_priv.330
 .text.mbedtls_mpi_mod_mpi
                0x00000000080168b0      0x380 /tmp/ccPT7ssV.ltrans4.ltrans.o
                0x00000000080168b0                mbedtls_mpi_mod_mpi
 .text.mbedtls_mpi_mul_mod.lto_priv.328
                0x0000000008016c30       0x98 /tmp/ccPT7ssV.ltrans4.ltrans.o
                0x0000000008016c30                mbedtls_mpi_mul_mod.lto_priv.328
 .text.mbedtls_ecp_check_pubkey
                0x0000000008016cc8      0x160 /tmp/ccPT7ssV.ltrans4.ltrans.o
                0x0000000008016cc8                mbedtls_ecp_check_pubkey
 .text.ecp_randomize_mxz.lto_priv.327
                0x0000000008016e28       0x90 /tmp/ccPT7ssV.ltrans4.ltrans.o
                0x0000000008016e28                ecp_randomize_mxz.lto_priv.327
 .text.ecp_randomize_jac.lto_priv.324
                0x0000000008016eb8       0xd4 /tmp/ccPT7ssV.ltrans4.ltrans.o
                0x0000000008016eb8                ecp_randomize_jac.lto_priv.324
 .text.ecp_double_jac.lto_priv.321
                0x0000000008016f8c      0x28a /tmp/ccPT7ssV.ltrans4.ltrans.o
                0x0000000008016f8c                ecp_double_jac.lto_priv.321
 *fill*         0x0000000008017216        0x2 
 .text.ecp_add_mixed.lto_priv.320
                0x0000000008017218      0x25c /tmp/ccPT7ssV.ltrans4.ltrans.o
                0x0000000008017218                ecp_add_mixed.lto_priv.320
 .text.mbedtls_mpi_inv_mod
                0x0000000008017474      0x38c /tmp/ccPT7ssV.ltrans4.ltrans.o
                0x0000000008017474                mbedtls_mpi_inv_mod
 .text.ecp_normalize_jac_many.part.5.lto_priv.322
                0x0000000008017800      0x1b4 /tmp/ccPT7ssV.ltrans4.ltrans.o
                0x0000000008017800                ecp_normalize_jac_many.part.5.lto_priv.322
 .text.ecp_normalize_jac.lto_priv.323
                0x00000000080179b4       0x9c /tmp/ccPT7ssV.ltrans4.ltrans.o
                0x00000000080179b4                ecp_normalize_jac.lto_priv.323
 .text._ZN6events10EventQueue16dispatch_foreverEv
                0x0000000008017a50      0x1c0 /tmp/ccPT7ssV.ltrans4.ltrans.o
                0x0000000008017a50                events::EventQueue::dispatch_forever()
 .text._ZNK12SingletonPtrIN4rtos5MutexEE3getEv
                0x0000000008017c10       0x22 /tmp/ccPT7ssV.ltrans4.ltrans.o
                0x0000000008017c10                SingletonPtr<rtos::Mutex>::get() const
 *fill*         0x0000000008017c32        0x2 
 .text._ZN4mbed4QSPI6unlockEv
                0x0000000008017c34       0x14 /tmp/ccPT7ssV.ltrans4.ltrans.o
                0x0000000008017c34                mbed::QSPI::unlock()
 .text._ZN4mbed4QSPI4lockEv
                0x0000000008017c48       0x14 /tmp/ccPT7ssV.ltrans4.ltrans.o
                0x0000000008017c48                mbed::QSPI::lock()
 .text._ZN4mbed4QSPID2Ev
                0x0000000008017c5c       0xb0 /tmp/ccPT7ssV.ltrans4.ltrans.o
                0x0000000008017c5c                mbed::QSPI::~QSPI()
                0x0000000008017c5c                mbed::QSPI::~QSPI()
 .text._ZN4mbed4QSPID0Ev
                0x0000000008017d0c       0x12 /tmp/ccPT7ssV.ltrans4.ltrans.o
 *fill*         0x0000000008017d1e        0x2 
 .text._ZN4mbed8FlashIAP5eraseEmm
                0x0000000008017d20      0x2dc /tmp/ccPT7ssV.ltrans4.ltrans.o
                0x0000000008017d20                mbed::FlashIAP::erase(unsigned long, unsigned long)
 .text._ZN4mbed8FlashIAP7programEPKvmm
                0x0000000008017ffc      0x29c /tmp/ccPT7ssV.ltrans4.ltrans.o
                0x0000000008017ffc                mbed::FlashIAP::program(void const*, unsigned long, unsigned long)
 .text._ZN4mbed8FlashIAP6deinitEv
                0x0000000008018298       0x38 /tmp/ccPT7ssV.ltrans4.ltrans.o
                0x0000000008018298                mbed::FlashIAP::deinit()
 .text._ZN4mbed8FlashIAP4initEv
                0x00000000080182d0       0x60 /tmp/ccPT7ssV.ltrans4.ltrans.o
                0x00000000080182d0                mbed::FlashIAP::init()
 .text.__errno  0x0000000008018330        0xc /home/andy/code/dbc/test/compilers/gcc-arm-none-eabi-7-2018-q2-update/bin/../lib/gcc/arm-none-eabi/7.3.1/../../../../arm-none-eabi/lib/thumb/v7e-m/fpv5/softfp/libc_nano.a(lib_a-errno.o)
                0x0000000008018330                __errno
 .text._fclose_r
                0x000000000801833c       0xa4 /home/andy/code/dbc/test/compilers/gcc-arm-none-eabi-7-2018-q2-update/bin/../lib/gcc/arm-none-eabi/7.3.1/../../../../arm-none-eabi/lib/thumb/v7e-m/fpv5/softfp/libc_nano.a(lib_a-fclose.o)
                0x000000000801833c                _fclose_r
 .text.fclose   0x00000000080183e0       0x10 /home/andy/code/dbc/test/compilers/gcc-arm-none-eabi-7-2018-q2-update/bin/../lib/gcc/arm-none-eabi/7.3.1/../../../../arm-none-eabi/lib/thumb/v7e-m/fpv5/softfp/libc_nano.a(lib_a-fclose.o)
                0x00000000080183e0                fclose
 .text.__sflush_r
                0x00000000080183f0      0x10c /home/andy/code/dbc/test/compilers/gcc-arm-none-eabi-7-2018-q2-update/bin/../lib/gcc/arm-none-eabi/7.3.1/../../../../arm-none-eabi/lib/thumb/v7e-m/fpv5/softfp/libc_nano.a(lib_a-fflush.o)
                0x00000000080183f0                __sflush_r
 .text._fflush_r
                0x00000000080184fc       0x54 /home/andy/code/dbc/test/compilers/gcc-arm-none-eabi-7-2018-q2-update/bin/../lib/gcc/arm-none-eabi/7.3.1/../../../../arm-none-eabi/lib/thumb/v7e-m/fpv5/softfp/libc_nano.a(lib_a-fflush.o)
                0x00000000080184fc                _fflush_r
 .text.fflush   0x0000000008018550       0x24 /home/andy/code/dbc/test/compilers/gcc-arm-none-eabi-7-2018-q2-update/bin/../lib/gcc/arm-none-eabi/7.3.1/../../../../arm-none-eabi/lib/thumb/v7e-m/fpv5/softfp/libc_nano.a(lib_a-fflush.o)
                0x0000000008018550                fflush
 .text.std      0x0000000008018574       0x48 /home/andy/code/dbc/test/compilers/gcc-arm-none-eabi-7-2018-q2-update/bin/../lib/gcc/arm-none-eabi/7.3.1/../../../../arm-none-eabi/lib/thumb/v7e-m/fpv5/softfp/libc_nano.a(lib_a-findfp.o)
 .text._cleanup_r
                0x00000000080185bc        0xc /home/andy/code/dbc/test/compilers/gcc-arm-none-eabi-7-2018-q2-update/bin/../lib/gcc/arm-none-eabi/7.3.1/../../../../arm-none-eabi/lib/thumb/v7e-m/fpv5/softfp/libc_nano.a(lib_a-findfp.o)
                0x00000000080185bc                _cleanup_r
 .text.__sfmoreglue
                0x00000000080185c8       0x2c /home/andy/code/dbc/test/compilers/gcc-arm-none-eabi-7-2018-q2-update/bin/../lib/gcc/arm-none-eabi/7.3.1/../../../../arm-none-eabi/lib/thumb/v7e-m/fpv5/softfp/libc_nano.a(lib_a-findfp.o)
                0x00000000080185c8                __sfmoreglue
 .text.__sinit  0x00000000080185f4       0x60 /home/andy/code/dbc/test/compilers/gcc-arm-none-eabi-7-2018-q2-update/bin/../lib/gcc/arm-none-eabi/7.3.1/../../../../arm-none-eabi/lib/thumb/v7e-m/fpv5/softfp/libc_nano.a(lib_a-findfp.o)
                0x00000000080185f4                __sinit
 .text.__sfp    0x0000000008018654       0x78 /home/andy/code/dbc/test/compilers/gcc-arm-none-eabi-7-2018-q2-update/bin/../lib/gcc/arm-none-eabi/7.3.1/../../../../arm-none-eabi/lib/thumb/v7e-m/fpv5/softfp/libc_nano.a(lib_a-findfp.o)
                0x0000000008018654                __sfp
 .text.__sfp_lock_acquire
                0x00000000080186cc        0x2 /home/andy/code/dbc/test/compilers/gcc-arm-none-eabi-7-2018-q2-update/bin/../lib/gcc/arm-none-eabi/7.3.1/../../../../arm-none-eabi/lib/thumb/v7e-m/fpv5/softfp/libc_nano.a(lib_a-findfp.o)
                0x00000000080186cc                __sfp_lock_acquire
 .text.__sfp_lock_release
                0x00000000080186ce        0x2 /home/andy/code/dbc/test/compilers/gcc-arm-none-eabi-7-2018-q2-update/bin/../lib/gcc/arm-none-eabi/7.3.1/../../../../arm-none-eabi/lib/thumb/v7e-m/fpv5/softfp/libc_nano.a(lib_a-findfp.o)
                0x00000000080186ce                __sfp_lock_release
 .text._fopen_r
                0x00000000080186d0       0x80 /home/andy/code/dbc/test/compilers/gcc-arm-none-eabi-7-2018-q2-update/bin/../lib/gcc/arm-none-eabi/7.3.1/../../../../arm-none-eabi/lib/thumb/v7e-m/fpv5/softfp/libc_nano.a(lib_a-fopen.o)
                0x00000000080186d0                _fopen_r
 .text.fopen    0x0000000008018750       0x10 /home/andy/code/dbc/test/compilers/gcc-arm-none-eabi-7-2018-q2-update/bin/../lib/gcc/arm-none-eabi/7.3.1/../../../../arm-none-eabi/lib/thumb/v7e-m/fpv5/softfp/libc_nano.a(lib_a-fopen.o)
                0x0000000008018750                fopen
 .text._fread_r
                0x0000000008018760       0xa0 /home/andy/code/dbc/test/compilers/gcc-arm-none-eabi-7-2018-q2-update/bin/../lib/gcc/arm-none-eabi/7.3.1/../../../../arm-none-eabi/lib/thumb/v7e-m/fpv5/softfp/libc_nano.a(lib_a-fread.o)
                0x0000000008018760                _fread_r
 .text.fread    0x0000000008018800       0x1c /home/andy/code/dbc/test/compilers/gcc-arm-none-eabi-7-2018-q2-update/bin/../lib/gcc/arm-none-eabi/7.3.1/../../../../arm-none-eabi/lib/thumb/v7e-m/fpv5/softfp/libc_nano.a(lib_a-fread.o)
                0x0000000008018800                fread
 .text._fseek_r
                0x000000000801881c        0x4 /home/andy/code/dbc/test/compilers/gcc-arm-none-eabi-7-2018-q2-update/bin/../lib/gcc/arm-none-eabi/7.3.1/../../../../arm-none-eabi/lib/thumb/v7e-m/fpv5/softfp/libc_nano.a(lib_a-fseek.o)
                0x000000000801881c                _fseek_r
 .text.fseek    0x0000000008018820       0x14 /home/andy/code/dbc/test/compilers/gcc-arm-none-eabi-7-2018-q2-update/bin/../lib/gcc/arm-none-eabi/7.3.1/../../../../arm-none-eabi/lib/thumb/v7e-m/fpv5/softfp/libc_nano.a(lib_a-fseek.o)
                0x0000000008018820                fseek
 .text._fseeko_r
                0x0000000008018834      0x120 /home/andy/code/dbc/test/compilers/gcc-arm-none-eabi-7-2018-q2-update/bin/../lib/gcc/arm-none-eabi/7.3.1/../../../../arm-none-eabi/lib/thumb/v7e-m/fpv5/softfp/libc_nano.a(lib_a-fseeko.o)
                0x0000000008018834                _fseeko_r
 .text.ftell    0x0000000008018954       0x10 /home/andy/code/dbc/test/compilers/gcc-arm-none-eabi-7-2018-q2-update/bin/../lib/gcc/arm-none-eabi/7.3.1/../../../../arm-none-eabi/lib/thumb/v7e-m/fpv5/softfp/libc_nano.a(lib_a-ftell.o)
                0x0000000008018954                ftell
 .text._ftello_r
                0x0000000008018964       0xa4 /home/andy/code/dbc/test/compilers/gcc-arm-none-eabi-7-2018-q2-update/bin/../lib/gcc/arm-none-eabi/7.3.1/../../../../arm-none-eabi/lib/thumb/v7e-m/fpv5/softfp/libc_nano.a(lib_a-ftello.o)
                0x0000000008018964                _ftello_r
 .text._fwalk   0x0000000008018a08       0x38 /home/andy/code/dbc/test/compilers/gcc-arm-none-eabi-7-2018-q2-update/bin/../lib/gcc/arm-none-eabi/7.3.1/../../../../arm-none-eabi/lib/thumb/v7e-m/fpv5/softfp/libc_nano.a(lib_a-fwalk.o)
                0x0000000008018a08                _fwalk
 .text._fwalk_reent
                0x0000000008018a40       0x3c /home/andy/code/dbc/test/compilers/gcc-arm-none-eabi-7-2018-q2-update/bin/../lib/gcc/arm-none-eabi/7.3.1/../../../../arm-none-eabi/lib/thumb/v7e-m/fpv5/softfp/libc_nano.a(lib_a-fwalk.o)
                0x0000000008018a40                _fwalk_reent
 .text.__libc_init_array
                0x0000000008018a7c       0x48 /home/andy/code/dbc/test/compilers/gcc-arm-none-eabi-7-2018-q2-update/bin/../lib/gcc/arm-none-eabi/7.3.1/../../../../arm-none-eabi/lib/thumb/v7e-m/fpv5/softfp/libc_nano.a(lib_a-init.o)
                0x0000000008018a7c                __libc_init_array
 .text.localtime
                0x0000000008018ac4       0x24 /home/andy/code/dbc/test/compilers/gcc-arm-none-eabi-7-2018-q2-update/bin/../lib/gcc/arm-none-eabi/7.3.1/../../../../arm-none-eabi/lib/thumb/v7e-m/fpv5/softfp/libc_nano.a(lib_a-lcltime.o)
                0x0000000008018ac4                localtime
 .text.localtime_r
                0x0000000008018ae8      0x1d8 /home/andy/code/dbc/test/compilers/gcc-arm-none-eabi-7-2018-q2-update/bin/../lib/gcc/arm-none-eabi/7.3.1/../../../../arm-none-eabi/lib/thumb/v7e-m/fpv5/softfp/libc_nano.a(lib_a-lcltime_r.o)
                0x0000000008018ae8                localtime_r
 .text.__swhatbuf_r
                0x0000000008018cc0       0x48 /home/andy/code/dbc/test/compilers/gcc-arm-none-eabi-7-2018-q2-update/bin/../lib/gcc/arm-none-eabi/7.3.1/../../../../arm-none-eabi/lib/thumb/v7e-m/fpv5/softfp/libc_nano.a(lib_a-makebuf.o)
                0x0000000008018cc0                __swhatbuf_r
 .text.__smakebuf_r
                0x0000000008018d08       0x80 /home/andy/code/dbc/test/compilers/gcc-arm-none-eabi-7-2018-q2-update/bin/../lib/gcc/arm-none-eabi/7.3.1/../../../../arm-none-eabi/lib/thumb/v7e-m/fpv5/softfp/libc_nano.a(lib_a-makebuf.o)
                0x0000000008018d08                __smakebuf_r
 .text.malloc   0x0000000008018d88       0x10 /home/andy/code/dbc/test/compilers/gcc-arm-none-eabi-7-2018-q2-update/bin/../lib/gcc/arm-none-eabi/7.3.1/../../../../arm-none-eabi/lib/thumb/v7e-m/fpv5/softfp/libc_nano.a(lib_a-malloc.o)
                0x0000000008018d88                malloc
 .text.free     0x0000000008018d98       0x10 /home/andy/code/dbc/test/compilers/gcc-arm-none-eabi-7-2018-q2-update/bin/../lib/gcc/arm-none-eabi/7.3.1/../../../../arm-none-eabi/lib/thumb/v7e-m/fpv5/softfp/libc_nano.a(lib_a-malloc.o)
                0x0000000008018d98                free
 *fill*         0x0000000008018da8        0x8 
 .text          0x0000000008018db0       0xa0 /home/andy/code/dbc/test/compilers/gcc-arm-none-eabi-7-2018-q2-update/bin/../lib/gcc/arm-none-eabi/7.3.1/../../../../arm-none-eabi/lib/thumb/v7e-m/fpv5/softfp/libc_nano.a(lib_a-memchr.o)
                0x0000000008018db0                memchr
 .text.memcpy   0x0000000008018e50       0x16 /home/andy/code/dbc/test/compilers/gcc-arm-none-eabi-7-2018-q2-update/bin/../lib/gcc/arm-none-eabi/7.3.1/../../../../arm-none-eabi/lib/thumb/v7e-m/fpv5/softfp/libc_nano.a(lib_a-memcpy-stub.o)
                0x0000000008018e50                memcpy
 .text.memset   0x0000000008018e66       0x10 /home/andy/code/dbc/test/compilers/gcc-arm-none-eabi-7-2018-q2-update/bin/../lib/gcc/arm-none-eabi/7.3.1/../../../../arm-none-eabi/lib/thumb/v7e-m/fpv5/softfp/libc_nano.a(lib_a-memset.o)
                0x0000000008018e66                memset
 .text._calloc_r
                0x0000000008018e76       0x1c /home/andy/code/dbc/test/compilers/gcc-arm-none-eabi-7-2018-q2-update/bin/../lib/gcc/arm-none-eabi/7.3.1/../../../../arm-none-eabi/lib/thumb/v7e-m/fpv5/softfp/libc_nano.a(lib_a-nano-callocr.o)
                0x0000000008018e76                _calloc_r
 *fill*         0x0000000008018e92        0x2 
 .text._free_r  0x0000000008018e94       0x9c /home/andy/code/dbc/test/compilers/gcc-arm-none-eabi-7-2018-q2-update/bin/../lib/gcc/arm-none-eabi/7.3.1/../../../../arm-none-eabi/lib/thumb/v7e-m/fpv5/softfp/libc_nano.a(lib_a-nano-freer.o)
                0x0000000008018e94                _free_r
 .text._malloc_r
                0x0000000008018f30       0xb4 /home/andy/code/dbc/test/compilers/gcc-arm-none-eabi-7-2018-q2-update/bin/../lib/gcc/arm-none-eabi/7.3.1/../../../../arm-none-eabi/lib/thumb/v7e-m/fpv5/softfp/libc_nano.a(lib_a-nano-mallocr.o)
                0x0000000008018f30                _malloc_r
 .text._realloc_r
                0x0000000008018fe4       0x4c /home/andy/code/dbc/test/compilers/gcc-arm-none-eabi-7-2018-q2-update/bin/../lib/gcc/arm-none-eabi/7.3.1/../../../../arm-none-eabi/lib/thumb/v7e-m/fpv5/softfp/libc_nano.a(lib_a-nano-reallocr.o)
                0x0000000008018fe4                _realloc_r
 .text._open_r  0x0000000008019030       0x24 /home/andy/code/dbc/test/compilers/gcc-arm-none-eabi-7-2018-q2-update/bin/../lib/gcc/arm-none-eabi/7.3.1/../../../../arm-none-eabi/lib/thumb/v7e-m/fpv5/softfp/libc_nano.a(lib_a-openr.o)
                0x0000000008019030                _open_r
 .text.lflush   0x0000000008019054       0x12 /home/andy/code/dbc/test/compilers/gcc-arm-none-eabi-7-2018-q2-update/bin/../lib/gcc/arm-none-eabi/7.3.1/../../../../arm-none-eabi/lib/thumb/v7e-m/fpv5/softfp/libc_nano.a(lib_a-refill.o)
 *fill*         0x0000000008019066        0x2 
 .text.__srefill_r
                0x0000000008019068      0x118 /home/andy/code/dbc/test/compilers/gcc-arm-none-eabi-7-2018-q2-update/bin/../lib/gcc/arm-none-eabi/7.3.1/../../../../arm-none-eabi/lib/thumb/v7e-m/fpv5/softfp/libc_nano.a(lib_a-refill.o)
                0x0000000008019068                __srefill_r
 .text._sbrk_r  0x0000000008019180       0x20 /home/andy/code/dbc/test/compilers/gcc-arm-none-eabi-7-2018-q2-update/bin/../lib/gcc/arm-none-eabi/7.3.1/../../../../arm-none-eabi/lib/thumb/v7e-m/fpv5/softfp/libc_nano.a(lib_a-sbrkr.o)
                0x0000000008019180                _sbrk_r
 .text.__sread  0x00000000080191a0       0x22 /home/andy/code/dbc/test/compilers/gcc-arm-none-eabi-7-2018-q2-update/bin/../lib/gcc/arm-none-eabi/7.3.1/../../../../arm-none-eabi/lib/thumb/v7e-m/fpv5/softfp/libc_nano.a(lib_a-stdio.o)
                0x00000000080191a0                __sread
 .text.__seofread
                0x00000000080191c2        0x4 /home/andy/code/dbc/test/compilers/gcc-arm-none-eabi-7-2018-q2-update/bin/../lib/gcc/arm-none-eabi/7.3.1/../../../../arm-none-eabi/lib/thumb/v7e-m/fpv5/softfp/libc_nano.a(lib_a-stdio.o)
                0x00000000080191c2                __seofread
 .text.__swrite
                0x00000000080191c6       0x38 /home/andy/code/dbc/test/compilers/gcc-arm-none-eabi-7-2018-q2-update/bin/../lib/gcc/arm-none-eabi/7.3.1/../../../../arm-none-eabi/lib/thumb/v7e-m/fpv5/softfp/libc_nano.a(lib_a-stdio.o)
                0x00000000080191c6                __swrite
 .text.__sseek  0x00000000080191fe       0x24 /home/andy/code/dbc/test/compilers/gcc-arm-none-eabi-7-2018-q2-update/bin/../lib/gcc/arm-none-eabi/7.3.1/../../../../arm-none-eabi/lib/thumb/v7e-m/fpv5/softfp/libc_nano.a(lib_a-stdio.o)
                0x00000000080191fe                __sseek
 .text.__sclose
                0x0000000008019222        0x8 /home/andy/code/dbc/test/compilers/gcc-arm-none-eabi-7-2018-q2-update/bin/../lib/gcc/arm-none-eabi/7.3.1/../../../../arm-none-eabi/lib/thumb/v7e-m/fpv5/softfp/libc_nano.a(lib_a-stdio.o)
                0x0000000008019222                __sclose
 *fill*         0x000000000801922a        0x2 
 .text.__tzcalc_limits
                0x000000000801922c      0x150 /home/andy/code/dbc/test/compilers/gcc-arm-none-eabi-7-2018-q2-update/bin/../lib/gcc/arm-none-eabi/7.3.1/../../../../arm-none-eabi/lib/thumb/v7e-m/fpv5/softfp/libc_nano.a(lib_a-tzcalc_limits.o)
                0x000000000801922c                __tzcalc_limits
 .text.__tz_lock
                0x000000000801937c        0x2 /home/andy/code/dbc/test/compilers/gcc-arm-none-eabi-7-2018-q2-update/bin/../lib/gcc/arm-none-eabi/7.3.1/../../../../arm-none-eabi/lib/thumb/v7e-m/fpv5/softfp/libc_nano.a(lib_a-tzlock.o)
                0x000000000801937c                __tz_lock
 .text.__tz_unlock
                0x000000000801937e        0x2 /home/andy/code/dbc/test/compilers/gcc-arm-none-eabi-7-2018-q2-update/bin/../lib/gcc/arm-none-eabi/7.3.1/../../../../arm-none-eabi/lib/thumb/v7e-m/fpv5/softfp/libc_nano.a(lib_a-tzlock.o)
                0x000000000801937e                __tz_unlock
 .text._tzset_unlocked
                0x0000000008019380        0xc /home/andy/code/dbc/test/compilers/gcc-arm-none-eabi-7-2018-q2-update/bin/../lib/gcc/arm-none-eabi/7.3.1/../../../../arm-none-eabi/lib/thumb/v7e-m/fpv5/softfp/libc_nano.a(lib_a-tzset.o)
                0x0000000008019380                _tzset_unlocked
 .text._tzset_unlocked_r
                0x000000000801938c      0x2fc /home/andy/code/dbc/test/compilers/gcc-arm-none-eabi-7-2018-q2-update/bin/../lib/gcc/arm-none-eabi/7.3.1/../../../../arm-none-eabi/lib/thumb/v7e-m/fpv5/softfp/libc_nano.a(lib_a-tzset_r.o)
                0x000000000801938c                _tzset_unlocked_r
 .text._write_r
                0x0000000008019688       0x24 /home/andy/code/dbc/test/compilers/gcc-arm-none-eabi-7-2018-q2-update/bin/../lib/gcc/arm-none-eabi/7.3.1/../../../../arm-none-eabi/lib/thumb/v7e-m/fpv5/softfp/libc_nano.a(lib_a-writer.o)
                0x0000000008019688                _write_r
 .text._close_r
                0x00000000080196ac       0x20 /home/andy/code/dbc/test/compilers/gcc-arm-none-eabi-7-2018-q2-update/bin/../lib/gcc/arm-none-eabi/7.3.1/../../../../arm-none-eabi/lib/thumb/v7e-m/fpv5/softfp/libc_nano.a(lib_a-closer.o)
                0x00000000080196ac                _close_r
 .text.__sflags
                0x00000000080196cc       0x6a /home/andy/code/dbc/test/compilers/gcc-arm-none-eabi-7-2018-q2-update/bin/../lib/gcc/arm-none-eabi/7.3.1/../../../../arm-none-eabi/lib/thumb/v7e-m/fpv5/softfp/libc_nano.a(lib_a-flags.o)
                0x00000000080196cc                __sflags
 *fill*         0x0000000008019736        0x2 
 .text._fstat_r
                0x0000000008019738       0x24 /home/andy/code/dbc/test/compilers/gcc-arm-none-eabi-7-2018-q2-update/bin/../lib/gcc/arm-none-eabi/7.3.1/../../../../arm-none-eabi/lib/thumb/v7e-m/fpv5/softfp/libc_nano.a(lib_a-fstatr.o)
                0x0000000008019738                _fstat_r
 .text._findenv_r
                0x000000000801975c       0x78 /home/andy/code/dbc/test/compilers/gcc-arm-none-eabi-7-2018-q2-update/bin/../lib/gcc/arm-none-eabi/7.3.1/../../../../arm-none-eabi/lib/thumb/v7e-m/fpv5/softfp/libc_nano.a(lib_a-getenv_r.o)
                0x000000000801975c                _findenv_r
 .text._getenv_r
                0x00000000080197d4        0xe /home/andy/code/dbc/test/compilers/gcc-arm-none-eabi-7-2018-q2-update/bin/../lib/gcc/arm-none-eabi/7.3.1/../../../../arm-none-eabi/lib/thumb/v7e-m/fpv5/softfp/libc_nano.a(lib_a-getenv_r.o)
                0x00000000080197d4                _getenv_r
 *fill*         0x00000000080197e2        0x2 
 .text.__gettzinfo
                0x00000000080197e4        0x8 /home/andy/code/dbc/test/compilers/gcc-arm-none-eabi-7-2018-q2-update/bin/../lib/gcc/arm-none-eabi/7.3.1/../../../../arm-none-eabi/lib/thumb/v7e-m/fpv5/softfp/libc_nano.a(lib_a-gettzinfo.o)
                0x00000000080197e4                __gettzinfo
 .text.gmtime_r
                0x00000000080197ec      0x15c /home/andy/code/dbc/test/compilers/gcc-arm-none-eabi-7-2018-q2-update/bin/../lib/gcc/arm-none-eabi/7.3.1/../../../../arm-none-eabi/lib/thumb/v7e-m/fpv5/softfp/libc_nano.a(lib_a-gmtime_r.o)
                0x00000000080197ec                gmtime_r
 .text._isatty_r
                0x0000000008019948       0x20 /home/andy/code/dbc/test/compilers/gcc-arm-none-eabi-7-2018-q2-update/bin/../lib/gcc/arm-none-eabi/7.3.1/../../../../arm-none-eabi/lib/thumb/v7e-m/fpv5/softfp/libc_nano.a(lib_a-isattyr.o)
                0x0000000008019948                _isatty_r
 .text._lseek_r
                0x0000000008019968       0x24 /home/andy/code/dbc/test/compilers/gcc-arm-none-eabi-7-2018-q2-update/bin/../lib/gcc/arm-none-eabi/7.3.1/../../../../arm-none-eabi/lib/thumb/v7e-m/fpv5/softfp/libc_nano.a(lib_a-lseekr.o)
                0x0000000008019968                _lseek_r
 .text._malloc_usable_size_r
                0x000000000801998c       0x10 /home/andy/code/dbc/test/compilers/gcc-arm-none-eabi-7-2018-q2-update/bin/../lib/gcc/arm-none-eabi/7.3.1/../../../../arm-none-eabi/lib/thumb/v7e-m/fpv5/softfp/libc_nano.a(lib_a-nano-msizer.o)
                0x000000000801998c                _malloc_usable_size_r
 .text._read_r  0x000000000801999c       0x24 /home/andy/code/dbc/test/compilers/gcc-arm-none-eabi-7-2018-q2-update/bin/../lib/gcc/arm-none-eabi/7.3.1/../../../../arm-none-eabi/lib/thumb/v7e-m/fpv5/softfp/libc_nano.a(lib_a-readr.o)
                0x000000000801999c                _read_r
 .text.sscanf   0x00000000080199c0       0x54 /home/andy/code/dbc/test/compilers/gcc-arm-none-eabi-7-2018-q2-update/bin/../lib/gcc/arm-none-eabi/7.3.1/../../../../arm-none-eabi/lib/thumb/v7e-m/fpv5/softfp/libc_nano.a(lib_a-sscanf.o)
                0x00000000080199c0                sscanf
                0x00000000080199c0                siscanf
 .text          0x0000000008019a14       0x14 /home/andy/code/dbc/test/compilers/gcc-arm-none-eabi-7-2018-q2-update/bin/../lib/gcc/arm-none-eabi/7.3.1/../../../../arm-none-eabi/lib/thumb/v7e-m/fpv5/softfp/libc_nano.a(lib_a-strcmp.o)
                0x0000000008019a14                strcmp
 .text.strcpy   0x0000000008019a28       0x10 /home/andy/code/dbc/test/compilers/gcc-arm-none-eabi-7-2018-q2-update/bin/../lib/gcc/arm-none-eabi/7.3.1/../../../../arm-none-eabi/lib/thumb/v7e-m/fpv5/softfp/libc_nano.a(lib_a-strcpy.o)
                0x0000000008019a28                strcpy
 .text          0x0000000008019a38       0x10 /home/andy/code/dbc/test/compilers/gcc-arm-none-eabi-7-2018-q2-update/bin/../lib/gcc/arm-none-eabi/7.3.1/../../../../arm-none-eabi/lib/thumb/v7e-m/fpv5/softfp/libc_nano.a(lib_a-strlen.o)
                0x0000000008019a38                strlen
 .text.strncmp  0x0000000008019a48       0x24 /home/andy/code/dbc/test/compilers/gcc-arm-none-eabi-7-2018-q2-update/bin/../lib/gcc/arm-none-eabi/7.3.1/../../../../arm-none-eabi/lib/thumb/v7e-m/fpv5/softfp/libc_nano.a(lib_a-strncmp.o)
                0x0000000008019a48                strncmp
 .text._strtoul_l.isra.0
                0x0000000008019a6c       0xf4 /home/andy/code/dbc/test/compilers/gcc-arm-none-eabi-7-2018-q2-update/bin/../lib/gcc/arm-none-eabi/7.3.1/../../../../arm-none-eabi/lib/thumb/v7e-m/fpv5/softfp/libc_nano.a(lib_a-strtoul.o)
 .text._strtoul_r
                0x0000000008019b60       0x24 /home/andy/code/dbc/test/compilers/gcc-arm-none-eabi-7-2018-q2-update/bin/../lib/gcc/arm-none-eabi/7.3.1/../../../../arm-none-eabi/lib/thumb/v7e-m/fpv5/softfp/libc_nano.a(lib_a-strtoul.o)
                0x0000000008019b60                _strtoul_r
 .text.strtoul  0x0000000008019b84       0x2c /home/andy/code/dbc/test/compilers/gcc-arm-none-eabi-7-2018-q2-update/bin/../lib/gcc/arm-none-eabi/7.3.1/../../../../arm-none-eabi/lib/thumb/v7e-m/fpv5/softfp/libc_nano.a(lib_a-strtoul.o)
                0x0000000008019b84                strtoul
 .text.__locale_ctype_ptr_l
                0x0000000008019bb0        0x6 /home/andy/code/dbc/test/compilers/gcc-arm-none-eabi-7-2018-q2-update/bin/../lib/gcc/arm-none-eabi/7.3.1/../../../../arm-none-eabi/lib/thumb/v7e-m/fpv5/softfp/libc_nano.a(lib_a-locale.o)
                0x0000000008019bb0                __locale_ctype_ptr_l
 *fill*         0x0000000008019bb6        0x2 
 .text.__locale_ctype_ptr
                0x0000000008019bb8       0x1c /home/andy/code/dbc/test/compilers/gcc-arm-none-eabi-7-2018-q2-update/bin/../lib/gcc/arm-none-eabi/7.3.1/../../../../arm-none-eabi/lib/thumb/v7e-m/fpv5/softfp/libc_nano.a(lib_a-locale.o)
                0x0000000008019bb8                __locale_ctype_ptr
 .text.__ascii_mbtowc
                0x0000000008019bd4       0x24 /home/andy/code/dbc/test/compilers/gcc-arm-none-eabi-7-2018-q2-update/bin/../lib/gcc/arm-none-eabi/7.3.1/../../../../arm-none-eabi/lib/thumb/v7e-m/fpv5/softfp/libc_nano.a(lib_a-mbtowc_r.o)
                0x0000000008019bd4                __ascii_mbtowc
 .text._sungetc_r
                0x0000000008019bf8       0x7a /home/andy/code/dbc/test/compilers/gcc-arm-none-eabi-7-2018-q2-update/bin/../lib/gcc/arm-none-eabi/7.3.1/../../../../arm-none-eabi/lib/thumb/v7e-m/fpv5/softfp/libc_nano.a(lib_a-nano-svfscanf.o)
                0x0000000008019bf8                _sungetc_r
 .text.__ssrefill_r
                0x0000000008019c72       0x3a /home/andy/code/dbc/test/compilers/gcc-arm-none-eabi-7-2018-q2-update/bin/../lib/gcc/arm-none-eabi/7.3.1/../../../../arm-none-eabi/lib/thumb/v7e-m/fpv5/softfp/libc_nano.a(lib_a-nano-svfscanf.o)
                0x0000000008019c72                __ssrefill_r
 .text.__ssvfscanf_r
                0x0000000008019cac      0x2a0 /home/andy/code/dbc/test/compilers/gcc-arm-none-eabi-7-2018-q2-update/bin/../lib/gcc/arm-none-eabi/7.3.1/../../../../arm-none-eabi/lib/thumb/v7e-m/fpv5/softfp/libc_nano.a(lib_a-nano-svfscanf.o)
                0x0000000008019cac                __ssvfscanf_r
                0x0000000008019cac                __ssvfiscanf_r
 .text._scanf_chars
                0x0000000008019f4c       0xc6 /home/andy/code/dbc/test/compilers/gcc-arm-none-eabi-7-2018-q2-update/bin/../lib/gcc/arm-none-eabi/7.3.1/../../../../arm-none-eabi/lib/thumb/v7e-m/fpv5/softfp/libc_nano.a(lib_a-nano-vfscanf_i.o)
                0x0000000008019f4c                _scanf_chars
 *fill*         0x000000000801a012        0x2 
 .text._scanf_i
                0x000000000801a014      0x1e8 /home/andy/code/dbc/test/compilers/gcc-arm-none-eabi-7-2018-q2-update/bin/../lib/gcc/arm-none-eabi/7.3.1/../../../../arm-none-eabi/lib/thumb/v7e-m/fpv5/softfp/libc_nano.a(lib_a-nano-vfscanf_i.o)
                0x000000000801a014                _scanf_i
 .text.__sccl   0x000000000801a1fc       0x64 /home/andy/code/dbc/test/compilers/gcc-arm-none-eabi-7-2018-q2-update/bin/../lib/gcc/arm-none-eabi/7.3.1/../../../../arm-none-eabi/lib/thumb/v7e-m/fpv5/softfp/libc_nano.a(lib_a-sccl.o)
                0x000000000801a1fc                __sccl
 .text._strtol_l.isra.0
                0x000000000801a260       0xf6 /home/andy/code/dbc/test/compilers/gcc-arm-none-eabi-7-2018-q2-update/bin/../lib/gcc/arm-none-eabi/7.3.1/../../../../arm-none-eabi/lib/thumb/v7e-m/fpv5/softfp/libc_nano.a(lib_a-strtol.o)
 *fill*         0x000000000801a356        0x2 
 .text._strtol_r
                0x000000000801a358       0x24 /home/andy/code/dbc/test/compilers/gcc-arm-none-eabi-7-2018-q2-update/bin/../lib/gcc/arm-none-eabi/7.3.1/../../../../arm-none-eabi/lib/thumb/v7e-m/fpv5/softfp/libc_nano.a(lib_a-strtol.o)
                0x000000000801a358                _strtol_r
 .text.__submore
                0x000000000801a37c       0x74 /home/andy/code/dbc/test/compilers/gcc-arm-none-eabi-7-2018-q2-update/bin/../lib/gcc/arm-none-eabi/7.3.1/../../../../arm-none-eabi/lib/thumb/v7e-m/fpv5/softfp/libc_nano.a(lib_a-ungetc.o)
                0x000000000801a37c                __submore
 .text.__ascii_wctomb
                0x000000000801a3f0       0x1a /home/andy/code/dbc/test/compilers/gcc-arm-none-eabi-7-2018-q2-update/bin/../lib/gcc/arm-none-eabi/7.3.1/../../../../arm-none-eabi/lib/thumb/v7e-m/fpv5/softfp/libc_nano.a(lib_a-wctomb_r.o)
                0x000000000801a3f0                __ascii_wctomb
 *fill*         0x000000000801a40a        0x2 
 .text          0x000000000801a40c       0xa0 /home/andy/code/dbc/test/compilers/gcc-arm-none-eabi-7-2018-q2-update/bin/../lib/gcc/arm-none-eabi/7.3.1/thumb/v7e-m/fpv5/softfp/libgcc.a(_aeabi_ldivmod.o)
                0x000000000801a40c                __aeabi_ldivmod
 .text          0x000000000801a4ac      0x2cc /home/andy/code/dbc/test/compilers/gcc-arm-none-eabi-7-2018-q2-update/bin/../lib/gcc/arm-none-eabi/7.3.1/thumb/v7e-m/fpv5/softfp/libgcc.a(_udivmoddi4.o)
                0x000000000801a4ac                __udivmoddi4
 .text          0x000000000801a778        0x4 /home/andy/code/dbc/test/compilers/gcc-arm-none-eabi-7-2018-q2-update/bin/../lib/gcc/arm-none-eabi/7.3.1/thumb/v7e-m/fpv5/softfp/libgcc.a(_dvmd_tls.o)
                0x000000000801a778                __aeabi_ldiv0
                0x000000000801a778                __aeabi_idiv0
 .text.calloc   0x000000000801a77c       0x10 /home/andy/code/dbc/test/compilers/gcc-arm-none-eabi-7-2018-q2-update/bin/../lib/gcc/arm-none-eabi/7.3.1/../../../../arm-none-eabi/lib/thumb/v7e-m/fpv5/softfp/libc_nano.a(lib_a-calloc.o)
                0x000000000801a77c                calloc
 .text._fputc_r
                0x000000000801a78c       0x48 /home/andy/code/dbc/test/compilers/gcc-arm-none-eabi-7-2018-q2-update/bin/../lib/gcc/arm-none-eabi/7.3.1/../../../../arm-none-eabi/lib/thumb/v7e-m/fpv5/softfp/libc_nano.a(lib_a-fputc.o)
                0x000000000801a78c                _fputc_r
 .text.fputc    0x000000000801a7d4       0x10 /home/andy/code/dbc/test/compilers/gcc-arm-none-eabi-7-2018-q2-update/bin/../lib/gcc/arm-none-eabi/7.3.1/../../../../arm-none-eabi/lib/thumb/v7e-m/fpv5/softfp/libc_nano.a(lib_a-fputc.o)
                0x000000000801a7d4                fputc
 .text._fwrite_r
                0x000000000801a7e4       0x9c /home/andy/code/dbc/test/compilers/gcc-arm-none-eabi-7-2018-q2-update/bin/../lib/gcc/arm-none-eabi/7.3.1/../../../../arm-none-eabi/lib/thumb/v7e-m/fpv5/softfp/libc_nano.a(lib_a-fwrite.o)
                0x000000000801a7e4                _fwrite_r
 .text.fwrite   0x000000000801a880       0x1c /home/andy/code/dbc/test/compilers/gcc-arm-none-eabi-7-2018-q2-update/bin/../lib/gcc/arm-none-eabi/7.3.1/../../../../arm-none-eabi/lib/thumb/v7e-m/fpv5/softfp/libc_nano.a(lib_a-fwrite.o)
                0x000000000801a880                fwrite
 .text.memcmp   0x000000000801a89c       0x1e /home/andy/code/dbc/test/compilers/gcc-arm-none-eabi-7-2018-q2-update/bin/../lib/gcc/arm-none-eabi/7.3.1/../../../../arm-none-eabi/lib/thumb/v7e-m/fpv5/softfp/libc_nano.a(lib_a-memcmp.o)
                0x000000000801a89c                memcmp
 *fill*         0x000000000801a8ba        0x2 
 .text._putc_r  0x000000000801a8bc       0x6c /home/andy/code/dbc/test/compilers/gcc-arm-none-eabi-7-2018-q2-update/bin/../lib/gcc/arm-none-eabi/7.3.1/../../../../arm-none-eabi/lib/thumb/v7e-m/fpv5/softfp/libc_nano.a(lib_a-putc.o)
                0x000000000801a8bc                _putc_r
 .text._puts_r  0x000000000801a928       0xb8 /home/andy/code/dbc/test/compilers/gcc-arm-none-eabi-7-2018-q2-update/bin/../lib/gcc/arm-none-eabi/7.3.1/../../../../arm-none-eabi/lib/thumb/v7e-m/fpv5/softfp/libc_nano.a(lib_a-puts.o)
                0x000000000801a928                _puts_r
 .text.puts     0x000000000801a9e0       0x10 /home/andy/code/dbc/test/compilers/gcc-arm-none-eabi-7-2018-q2-update/bin/../lib/gcc/arm-none-eabi/7.3.1/../../../../arm-none-eabi/lib/thumb/v7e-m/fpv5/softfp/libc_nano.a(lib_a-puts.o)
                0x000000000801a9e0                puts
 .text.strchr   0x000000000801a9f0       0x1a /home/andy/code/dbc/test/compilers/gcc-arm-none-eabi-7-2018-q2-update/bin/../lib/gcc/arm-none-eabi/7.3.1/../../../../arm-none-eabi/lib/thumb/v7e-m/fpv5/softfp/libc_nano.a(lib_a-strchr.o)
                0x000000000801a9f0                strchr
 .text.strcspn  0x000000000801aa0a       0x24 /home/andy/code/dbc/test/compilers/gcc-arm-none-eabi-7-2018-q2-update/bin/../lib/gcc/arm-none-eabi/7.3.1/../../../../arm-none-eabi/lib/thumb/v7e-m/fpv5/softfp/libc_nano.a(lib_a-strcspn.o)
                0x000000000801aa0a                strcspn
 .text.strncpy  0x000000000801aa2e       0x2a /home/andy/code/dbc/test/compilers/gcc-arm-none-eabi-7-2018-q2-update/bin/../lib/gcc/arm-none-eabi/7.3.1/../../../../arm-none-eabi/lib/thumb/v7e-m/fpv5/softfp/libc_nano.a(lib_a-strncpy.o)
                0x000000000801aa2e                strncpy
 .text.strspn   0x000000000801aa58       0x24 /home/andy/code/dbc/test/compilers/gcc-arm-none-eabi-7-2018-q2-update/bin/../lib/gcc/arm-none-eabi/7.3.1/../../../../arm-none-eabi/lib/thumb/v7e-m/fpv5/softfp/libc_nano.a(lib_a-strspn.o)
                0x000000000801aa58                strspn
 .text.__swbuf_r
                0x000000000801aa7c       0xa4 /home/andy/code/dbc/test/compilers/gcc-arm-none-eabi-7-2018-q2-update/bin/../lib/gcc/arm-none-eabi/7.3.1/../../../../arm-none-eabi/lib/thumb/v7e-m/fpv5/softfp/libc_nano.a(lib_a-wbuf.o)
                0x000000000801aa7c                __swbuf_r
 .text.__swsetup_r
                0x000000000801ab20       0xdc /home/andy/code/dbc/test/compilers/gcc-arm-none-eabi-7-2018-q2-update/bin/../lib/gcc/arm-none-eabi/7.3.1/../../../../arm-none-eabi/lib/thumb/v7e-m/fpv5/softfp/libc_nano.a(lib_a-wsetup.o)
                0x000000000801ab20                __swsetup_r
 .text          0x000000000801abfc       0x30 /home/andy/code/dbc/test/compilers/gcc-arm-none-eabi-7-2018-q2-update/bin/../lib/gcc/arm-none-eabi/7.3.1/thumb/v7e-m/fpv5/softfp/libgcc.a(_aeabi_uldivmod.o)
                0x000000000801abfc                __aeabi_uldivmod
 .text          0x000000000801ac2c       0x28 /home/andy/code/dbc/test/compilers/gcc-arm-none-eabi-7-2018-q2-update/bin/../lib/gcc/arm-none-eabi/7.3.1/thumb/v7e-m/fpv5/softfp/libgcc.a(_popcountsi2.o)
                0x000000000801ac2c                __popcountsi2
 *(.init)
 .init          0x000000000801ac54        0x4 /home/andy/code/dbc/test/compilers/gcc-arm-none-eabi-7-2018-q2-update/bin/../lib/gcc/arm-none-eabi/7.3.1/thumb/v7e-m/fpv5/softfp/crti.o
                0x000000000801ac54                _init
 .init          0x000000000801ac58        0x8 /home/andy/code/dbc/test/compilers/gcc-arm-none-eabi-7-2018-q2-update/bin/../lib/gcc/arm-none-eabi/7.3.1/thumb/v7e-m/fpv5/softfp/crtn.o
 *(.fini)
 .fini          0x000000000801ac60        0x4 /home/andy/code/dbc/test/compilers/gcc-arm-none-eabi-7-2018-q2-update/bin/../lib/gcc/arm-none-eabi/7.3.1/thumb/v7e-m/fpv5/softfp/crti.o
                0x000000000801ac60                _fini
 .fini          0x000000000801ac64        0x8 /home/andy/code/dbc/test/compilers/gcc-arm-none-eabi-7-2018-q2-update/bin/../lib/gcc/arm-none-eabi/7.3.1/thumb/v7e-m/fpv5/softfp/crtn.o
 *crtbegin.o(.ctors)
 *crtbegin?.o(.ctors)
 *(EXCLUDE_FILE(*crtend.o *crtend?.o) .ctors)
 *(SORT_BY_NAME(.ctors.*))
 *(.ctors)
 *crtbegin.o(.dtors)
 *crtbegin?.o(.dtors)
 *(EXCLUDE_FILE(*crtend.o *crtend?.o) .dtors)
 *(SORT_BY_NAME(.dtors.*))
 *(.dtors)
 *(.rodata*)
 .rodata        0x000000000801ac6c       0xb8 /tmp/ccPT7ssV.ltrans0.ltrans.o
                0x000000000801ac7c                os_cb_sections
                0x000000000801acb4                osRtxConfig
 .rodata.RTCGetBKPRegister.str1.1
                0x000000000801ad24       0x14 /tmp/ccPT7ssV.ltrans0.ltrans.o
 .rodata.RTCSetBKPRegister.str1.1
                0x000000000801ad38       0x14 /tmp/ccPT7ssV.ltrans0.ltrans.o
 .rodata.USBD_DFU_ConfigStrDescriptor.str1.1
                0x000000000801ad4c        0xb /tmp/ccPT7ssV.ltrans0.ltrans.o
 .rodata.USBD_DFU_InterfaceStrDescriptor.str1.1
                0x000000000801ad57        0xe /tmp/ccPT7ssV.ltrans0.ltrans.o
 .rodata.USBD_DFU_ManufacturerStrDescriptor.str1.1
                0x000000000801ad65        0xb /tmp/ccPT7ssV.ltrans0.ltrans.o
 .rodata.USBD_DFU_ProductStrDescriptor.str1.1
                0x000000000801ad70        0x5 /tmp/ccPT7ssV.ltrans0.ltrans.o
 .rodata._ZL14initBlockTablev.lto_priv.313.str1.1
                0x000000000801ad75      0x138 /tmp/ccPT7ssV.ltrans0.ltrans.o
 .rodata._ZL9start_dfuv.str1.1
                0x000000000801aead       0x7f /tmp/ccPT7ssV.ltrans0.ltrans.o
 .rodata._ZN4mbed15FileBlockDevice4initEv.str1.1
                0x000000000801af2c       0x82 /tmp/ccPT7ssV.ltrans0.ltrans.o
 .rodata._ZN4mbed15FileBlockDevice4readEPvyy.str1.1
                0x000000000801afae       0x41 /tmp/ccPT7ssV.ltrans0.ltrans.o
 .rodata._ZN4mbed15FileBlockDevice5eraseEyy.str1.1
                0x000000000801afef       0x52 /tmp/ccPT7ssV.ltrans0.ltrans.o
 .rodata._ZN4mbed15FileBlockDevice7programEPKvyy.str1.1
                0x000000000801b041       0x5a /tmp/ccPT7ssV.ltrans0.ltrans.o
 .rodata._ZNK4mbed15FileBlockDevice8get_typeEv.str1.1
                0x000000000801b09b        0x7 /tmp/ccPT7ssV.ltrans0.ltrans.o
 *fill*         0x000000000801b0a2        0x2 
 .rodata._ZTV16QSPIFBlockDevice
                0x000000000801b0a4       0x54 /tmp/ccPT7ssV.ltrans0.ltrans.o
 .rodata._ZTVN4mbed14MBRBlockDeviceE
                0x000000000801b0f8       0x64 /tmp/ccPT7ssV.ltrans0.ltrans.o
 .rodata._ZTVN4mbed15FileBlockDeviceE
                0x000000000801b15c       0x54 /tmp/ccPT7ssV.ltrans0.ltrans.o
 .rodata._ZTVN4mbed18SlicingBlockDeviceE
                0x000000000801b1b0       0x54 /tmp/ccPT7ssV.ltrans0.ltrans.o
 .rodata.boot_status_tables
                0x000000000801b204       0x10 /tmp/ccPT7ssV.ltrans0.ltrans.o
 .rodata.boot_swap_tables
                0x000000000801b214       0x12 /tmp/ccPT7ssV.ltrans0.ltrans.o
 .rodata.main.str1.1
                0x000000000801b226      0x43f /tmp/ccPT7ssV.ltrans0.ltrans.o
                                        0x45c (size before relaxing)
 .rodata.mbed_start.str1.1
                0x000000000801b665       0x27 /tmp/ccPT7ssV.ltrans0.ltrans.o
 .rodata.osRtxUserSVC
                0x000000000801b68c        0x4 /tmp/ccPT7ssV.ltrans0.ltrans.o
                0x000000000801b68c                osRtxUserSVC
 .rodata.os_idle_thread_attr
                0x000000000801b690       0x24 /tmp/ccPT7ssV.ltrans0.ltrans.o
 .rodata.os_timer_mq_attr
                0x000000000801b6b4       0x18 /tmp/ccPT7ssV.ltrans0.ltrans.o
 .rodata.os_timer_thread_attr
                0x000000000801b6cc       0x24 /tmp/ccPT7ssV.ltrans0.ltrans.o
 .rodata.software_init_hook.str1.1
                0x000000000801b6f0       0x19 /tmp/ccPT7ssV.ltrans0.ltrans.o
 .rodata.str1.1
                0x000000000801b709       0x74 /tmp/ccPT7ssV.ltrans0.ltrans.o
 .rodata.CSWTCH.24
                0x000000000801b77d        0x3 /tmp/ccPT7ssV.ltrans1.ltrans.o
 .rodata.CSWTCH.59
                0x000000000801b780       0x29 /tmp/ccPT7ssV.ltrans1.ltrans.o
 .rodata.CSWTCH.60
                0x000000000801b7a9        0x6 /tmp/ccPT7ssV.ltrans1.ltrans.o
 .rodata.CSWTCH.67
                0x000000000801b7af        0x6 /tmp/ccPT7ssV.ltrans1.ltrans.o
 .rodata.D1CorePrescTable
                0x000000000801b7b5       0x10 /tmp/ccPT7ssV.ltrans1.ltrans.o
                0x000000000801b7b5                D1CorePrescTable
 *fill*         0x000000000801b7c5        0x3 
 .rodata.PinMapAnalogSwitch
                0x000000000801b7c8       0x28 /tmp/ccPT7ssV.ltrans1.ltrans.o
 .rodata.Set_GPIO_Clock.str1.1
                0x000000000801b7f0       0x21 /tmp/ccPT7ssV.ltrans1.ltrans.o
 *fill*         0x000000000801b811        0x1 
 .rodata.UARTPrescTable
                0x000000000801b812       0x18 /tmp/ccPT7ssV.ltrans1.ltrans.o
 .rodata._GLOBAL__I_65535_0_bootutil_extra.o.53499.str1.1
                0x000000000801b82a       0x3c /tmp/ccPT7ssV.ltrans1.ltrans.o
 *fill*         0x000000000801b866        0x2 
 .rodata._ZTV19FlashIAPBlockDevice
                0x000000000801b868       0x54 /tmp/ccPT7ssV.ltrans1.ltrans.o
                0x000000000801b868                vtable for FlashIAPBlockDevice
 .rodata._ZTVN4mbed13FATFileSystemE
                0x000000000801b8bc       0x9c /tmp/ccPT7ssV.ltrans1.ltrans.o
                0x000000000801b8bc                vtable for mbed::FATFileSystem
 .rodata._ZTVN4mbed14FileSystemLikeE
                0x000000000801b958       0x3c /tmp/ccPT7ssV.ltrans1.ltrans.o
                0x000000000801b958                vtable for mbed::FileSystemLike
 .rodata._ZTVN4mbed16FileSystemHandleE
                0x000000000801b994       0x2c /tmp/ccPT7ssV.ltrans1.ltrans.o
 .rodata._ZTVN4mbed16LittleFileSystemE
                0x000000000801b9c0       0x90 /tmp/ccPT7ssV.ltrans1.ltrans.o
                0x000000000801b9c0                vtable for mbed::LittleFileSystem
 .rodata._ZTVN4mbed6TickerE
                0x000000000801ba50        0xc /tmp/ccPT7ssV.ltrans1.ltrans.o
 .rodata._ZTVN4mbed7TimeoutE
                0x000000000801ba5c        0xc /tmp/ccPT7ssV.ltrans1.ltrans.o
 .rodata._ZTVN4mbed8FileBaseE
                0x000000000801ba68       0x10 /tmp/ccPT7ssV.ltrans1.ltrans.o
                0x000000000801ba68                vtable for mbed::FileBase
 .rodata._ZTVN4rtos6ThreadE
                0x000000000801ba78       0x10 /tmp/ccPT7ssV.ltrans1.ltrans.o
                0x000000000801ba78                vtable for rtos::Thread
 .rodata.boot_enc_load.constprop.110.str1.1
                0x000000000801ba88       0x11 /tmp/ccPT7ssV.ltrans1.ltrans.o
 *fill*         0x000000000801ba99        0x3 
 .rodata.boot_img_magic
                0x000000000801ba9c       0x10 /tmp/ccPT7ssV.ltrans1.ltrans.o
 .rodata.boot_swap_image.constprop.90.str1.1
                0x000000000801baac       0x45 /tmp/ccPT7ssV.ltrans1.ltrans.o
 .rodata.boot_validate_slot.constprop.104.str1.1
                0x000000000801baf1       0x38 /tmp/ccPT7ssV.ltrans1.ltrans.o
 .rodata.ec_pubkey_oid.lto_priv.299
                0x000000000801bb29        0x8 /tmp/ccPT7ssV.ltrans1.ltrans.o
 .rodata.ec_pubkey_oid.lto_priv.300
                0x000000000801bb31        0x8 /tmp/ccPT7ssV.ltrans1.ltrans.o
 .rodata.ec_secp256r1_oid.lto_priv.301
                0x000000000801bb39        0x9 /tmp/ccPT7ssV.ltrans1.ltrans.o
 .rodata.ec_secp256r1_oid.lto_priv.302
                0x000000000801bb42        0x9 /tmp/ccPT7ssV.ltrans1.ltrans.o
 .rodata.flash_area_open.str1.1
                0x000000000801bb4b       0x22 /tmp/ccPT7ssV.ltrans1.ltrans.o
 .rodata.flash_area_read.str1.1
                0x000000000801bb6d       0x5d /tmp/ccPT7ssV.ltrans1.ltrans.o
 *fill*         0x000000000801bbca        0x2 
 .rodata.info.16939
                0x000000000801bbcc        0x8 /tmp/ccPT7ssV.ltrans1.ltrans.o
 .rodata.ll_pin_defines
                0x000000000801bbd4       0x40 /tmp/ccPT7ssV.ltrans1.ltrans.o
                0x000000000801bbd4                ll_pin_defines
 .rodata.mbedtls_sha256_info
                0x000000000801bc14        0x8 /tmp/ccPT7ssV.ltrans1.ltrans.o
                0x000000000801bc14                mbedtls_sha256_info
 .rodata.qspi_prepare_command.str1.1
                0x000000000801bc1c       0x40 /tmp/ccPT7ssV.ltrans1.ltrans.o
 .rodata.str1.1
                0x000000000801bc5c        0xe /tmp/ccPT7ssV.ltrans1.ltrans.o
 *fill*         0x000000000801bc6a        0x2 
 .rodata.us_data.lto_priv.360
                0x000000000801bc6c        0x8 /tmp/ccPT7ssV.ltrans1.ltrans.o
                0x000000000801bc6c                us_data.lto_priv.360
 .rodata.us_interface.lto_priv.362
                0x000000000801bc74       0x24 /tmp/ccPT7ssV.ltrans1.ltrans.o
                0x000000000801bc74                us_interface.lto_priv.362
 .rodata._ZL11follow_pathP9FATFS_DIRPKc.str1.1
                0x000000000801bc98        0xf /tmp/ccPT7ssV.ltrans2.ltrans.o
 .rodata._ZL5ExCvt
                0x000000000801bca7       0x80 /tmp/ccPT7ssV.ltrans2.ltrans.o
 .rodata._ZL8check_fsP5FATFSm.part.7.str1.1
                0x000000000801bd27        0x9 /tmp/ccPT7ssV.ltrans2.ltrans.o
 .rodata._ZN4mbed16LittleFileSystem5mountEPNS_11BlockDeviceE.str1.1
                0x000000000801bd30        0x9 /tmp/ccPT7ssV.ltrans2.ltrans.o
 .rodata._ZN4mbed16LittleFileSystem8dir_readEPvP6dirent.str1.1
                0x000000000801bd39        0x3 /tmp/ccPT7ssV.ltrans2.ltrans.o
                                          0x5 (size before relaxing)
 .rodata._ZN4mbed4impl7MbedCRCILm79764919ELh32ELNS_7CrcModeE1EE10_crc_tableE
                0x000000000801bd3c       0x40 /tmp/ccPT7ssV.ltrans2.ltrans.o
 .rodata._ZTVN4mbed3DirE
                0x000000000801bd7c       0x2c /tmp/ccPT7ssV.ltrans2.ltrans.o
 .rodata._ZTVN4mbed4FileE
                0x000000000801bda8       0x54 /tmp/ccPT7ssV.ltrans2.ltrans.o
 .rodata._ZTVN4mbed7ManagedINS_3DirEEE
                0x000000000801bdfc       0x2c /tmp/ccPT7ssV.ltrans2.ltrans.o
 .rodata._ZTVN4mbed7ManagedINS_4FileEEE
                0x000000000801be28       0x54 /tmp/ccPT7ssV.ltrans2.ltrans.o
 .rodata.lfs_dir_find.str1.1
                0x000000000801be7c        0x2 /tmp/ccPT7ssV.ltrans2.ltrans.o
 *fill*         0x000000000801be7e        0x2 
 .rodata.PinMap_UART_RX
                0x000000000801be80      0x15c /tmp/ccPT7ssV.ltrans3.ltrans.o
 .rodata.PinMap_UART_TX
                0x000000000801bfdc      0x150 /tmp/ccPT7ssV.ltrans3.ltrans.o
 .rodata._ZN16QSPIFBlockDevice4initEv.str1.1
                0x000000000801c12c        0x5 /tmp/ccPT7ssV.ltrans3.ltrans.o
 .rodata._ZN4mbed8FilePathC2EPKc.str1.1
                0x000000000801c131        0x8 /tmp/ccPT7ssV.ltrans3.ltrans.o
                                          0xa (size before relaxing)
 .rodata._ZN4rtos5MutexC2Ev.str1.1
                0x000000000801c139       0x1a /tmp/ccPT7ssV.ltrans3.ltrans.o
 .rodata._ZNK16QSPIFBlockDevice8get_typeEv.str1.1
                0x000000000801c139        0x6 /tmp/ccPT7ssV.ltrans3.ltrans.o
 .rodata._ZNK19FlashIAPBlockDevice8get_typeEv.str1.1
                0x000000000801c13f        0x9 /tmp/ccPT7ssV.ltrans3.ltrans.o
 .rodata._ZTV12DirectSerial
                0x000000000801c148       0x50 /tmp/ccPT7ssV.ltrans3.ltrans.o
 .rodata._ZTVN4mbed8internal8SysTimerISt5ratioILx1ELx1000EELb1EEE
                0x000000000801c198        0xc /tmp/ccPT7ssV.ltrans3.ltrans.o
 .rodata.__stderr_name
                0x000000000801c1a4        0x8 /tmp/ccPT7ssV.ltrans3.ltrans.o
 .rodata.__stdin_name
                0x000000000801c1ac        0x7 /tmp/ccPT7ssV.ltrans3.ltrans.o
 .rodata.__stdout_name
                0x000000000801c1b3        0x8 /tmp/ccPT7ssV.ltrans3.ltrans.o
 .rodata._write.str1.1
                0x000000000801c1bb        0x2 /tmp/ccPT7ssV.ltrans3.ltrans.o
 .rodata.int2hex_lower.6713
                0x000000000801c1bd       0x10 /tmp/ccPT7ssV.ltrans3.ltrans.o
 .rodata.int2hex_upper.6714
                0x000000000801c1cd       0x10 /tmp/ccPT7ssV.ltrans3.ltrans.o
 .rodata.str1.1
                0x000000000801c1dd        0xb /tmp/ccPT7ssV.ltrans3.ltrans.o
 .rodata.K      0x000000000801c1e8      0x100 /tmp/ccPT7ssV.ltrans4.ltrans.o
 .rodata.PinMap_QSPI_DATA0
                0x000000000801c2e8       0x30 /tmp/ccPT7ssV.ltrans4.ltrans.o
 .rodata.PinMap_QSPI_DATA1
                0x000000000801c318       0x30 /tmp/ccPT7ssV.ltrans4.ltrans.o
 .rodata.PinMap_QSPI_DATA2
                0x000000000801c348       0x24 /tmp/ccPT7ssV.ltrans4.ltrans.o
 .rodata.PinMap_QSPI_DATA3
                0x000000000801c36c       0x30 /tmp/ccPT7ssV.ltrans4.ltrans.o
 .rodata.PinMap_QSPI_SCLK
                0x000000000801c39c       0x24 /tmp/ccPT7ssV.ltrans4.ltrans.o
 .rodata.PinMap_QSPI_SSEL
                0x000000000801c3c0       0x30 /tmp/ccPT7ssV.ltrans4.ltrans.o
 .rodata._ZTVN4mbed10TimerEventE
                0x000000000801c3f0        0xc /tmp/ccPT7ssV.ltrans4.ltrans.o
 .rodata._ZTVN4mbed4QSPIE
                0x000000000801c3fc       0x18 /tmp/ccPT7ssV.ltrans4.ltrans.o
                0x000000000801c3fc                vtable for mbed::QSPI
 .rodata.secp256r1_b
                0x000000000801c414       0x20 /tmp/ccPT7ssV.ltrans4.ltrans.o
 .rodata.secp256r1_gx
                0x000000000801c434       0x20 /tmp/ccPT7ssV.ltrans4.ltrans.o
 .rodata.secp256r1_gy
                0x000000000801c454       0x20 /tmp/ccPT7ssV.ltrans4.ltrans.o
 .rodata.secp256r1_n
                0x000000000801c474       0x20 /tmp/ccPT7ssV.ltrans4.ltrans.o
 .rodata.secp256r1_p
                0x000000000801c494       0x20 /tmp/ccPT7ssV.ltrans4.ltrans.o
 .rodata.__sf_fake_stderr
                0x000000000801c4b4       0x20 /home/andy/code/dbc/test/compilers/gcc-arm-none-eabi-7-2018-q2-update/bin/../lib/gcc/arm-none-eabi/7.3.1/../../../../arm-none-eabi/lib/thumb/v7e-m/fpv5/softfp/libc_nano.a(lib_a-findfp.o)
                0x000000000801c4b4                __sf_fake_stderr
 .rodata.__sf_fake_stdin
                0x000000000801c4d4       0x20 /home/andy/code/dbc/test/compilers/gcc-arm-none-eabi-7-2018-q2-update/bin/../lib/gcc/arm-none-eabi/7.3.1/../../../../arm-none-eabi/lib/thumb/v7e-m/fpv5/softfp/libc_nano.a(lib_a-findfp.o)
                0x000000000801c4d4                __sf_fake_stdin
 .rodata.__sf_fake_stdout
                0x000000000801c4f4       0x20 /home/andy/code/dbc/test/compilers/gcc-arm-none-eabi-7-2018-q2-update/bin/../lib/gcc/arm-none-eabi/7.3.1/../../../../arm-none-eabi/lib/thumb/v7e-m/fpv5/softfp/libc_nano.a(lib_a-findfp.o)
                0x000000000801c4f4                __sf_fake_stdout
 .rodata._global_impure_ptr
                0x000000000801c514        0x4 /home/andy/code/dbc/test/compilers/gcc-arm-none-eabi-7-2018-q2-update/bin/../lib/gcc/arm-none-eabi/7.3.1/../../../../arm-none-eabi/lib/thumb/v7e-m/fpv5/softfp/libc_nano.a(lib_a-impure.o)
                0x000000000801c514                _global_impure_ptr
 .rodata.__month_lengths
                0x000000000801c518       0x60 /home/andy/code/dbc/test/compilers/gcc-arm-none-eabi-7-2018-q2-update/bin/../lib/gcc/arm-none-eabi/7.3.1/../../../../arm-none-eabi/lib/thumb/v7e-m/fpv5/softfp/libc_nano.a(lib_a-month_lengths.o)
                0x000000000801c518                __month_lengths
 .rodata._tzset_unlocked_r.str1.1
                0x000000000801c578       0x3c /home/andy/code/dbc/test/compilers/gcc-arm-none-eabi-7-2018-q2-update/bin/../lib/gcc/arm-none-eabi/7.3.1/../../../../arm-none-eabi/lib/thumb/v7e-m/fpv5/softfp/libc_nano.a(lib_a-tzset_r.o)
                                         0x4e (size before relaxing)
 .rodata.str1.1
                0x000000000801c5b4        0x4 /home/andy/code/dbc/test/compilers/gcc-arm-none-eabi-7-2018-q2-update/bin/../lib/gcc/arm-none-eabi/7.3.1/../../../../arm-none-eabi/lib/thumb/v7e-m/fpv5/softfp/libc_nano.a(lib_a-tzvars.o)
 .rodata._setlocale_r.str1.1
                0x000000000801c5b4        0x6 /home/andy/code/dbc/test/compilers/gcc-arm-none-eabi-7-2018-q2-update/bin/../lib/gcc/arm-none-eabi/7.3.1/../../../../arm-none-eabi/lib/thumb/v7e-m/fpv5/softfp/libc_nano.a(lib_a-locale.o)
                                          0x9 (size before relaxing)
 .rodata.str1.1
                0x000000000801c5ba        0x6 /home/andy/code/dbc/test/compilers/gcc-arm-none-eabi-7-2018-q2-update/bin/../lib/gcc/arm-none-eabi/7.3.1/../../../../arm-none-eabi/lib/thumb/v7e-m/fpv5/softfp/libc_nano.a(lib_a-locale.o)
                                          0x2 (size before relaxing)
 .rodata.__ssvfscanf_r.str1.1
                0x000000000801c5ba        0x4 /home/andy/code/dbc/test/compilers/gcc-arm-none-eabi-7-2018-q2-update/bin/../lib/gcc/arm-none-eabi/7.3.1/../../../../arm-none-eabi/lib/thumb/v7e-m/fpv5/softfp/libc_nano.a(lib_a-nano-svfscanf.o)
 *fill*         0x000000000801c5be        0x2 
 .rodata        0x000000000801c5c0        0xc /home/andy/code/dbc/test/compilers/gcc-arm-none-eabi-7-2018-q2-update/bin/../lib/gcc/arm-none-eabi/7.3.1/../../../../arm-none-eabi/lib/thumb/v7e-m/fpv5/softfp/libc_nano.a(lib_a-nano-vfscanf_i.o)
 .rodata._scanf_i.str1.1
                0x000000000801c5cc       0x12 /home/andy/code/dbc/test/compilers/gcc-arm-none-eabi-7-2018-q2-update/bin/../lib/gcc/arm-none-eabi/7.3.1/../../../../arm-none-eabi/lib/thumb/v7e-m/fpv5/softfp/libc_nano.a(lib_a-nano-vfscanf_i.o)
 .rodata.str1.1
                0x000000000801c5de        0x9 /home/andy/code/dbc/test/compilers/gcc-arm-none-eabi-7-2018-q2-update/bin/../lib/gcc/arm-none-eabi/7.3.1/../../../../arm-none-eabi/lib/thumb/v7e-m/fpv5/softfp/libc_nano.a(lib_a-nano-vfscanf_i.o)
 .rodata._ctype_
                0x000000000801c5e7      0x101 /home/andy/code/dbc/test/compilers/gcc-arm-none-eabi-7-2018-q2-update/bin/../lib/gcc/arm-none-eabi/7.3.1/../../../../arm-none-eabi/lib/thumb/v7e-m/fpv5/softfp/libc_nano.a(lib_a-ctype_.o)
                0x000000000801c5e7                _ctype_
 *(.eh_frame*)
 .eh_frame      0x000000000801c6e8        0x0 /home/andy/code/dbc/test/compilers/gcc-arm-none-eabi-7-2018-q2-update/bin/../lib/gcc/arm-none-eabi/7.3.1/thumb/v7e-m/fpv5/softfp/crtbegin.o
 .eh_frame      0x000000000801c6e8        0x4 /home/andy/code/dbc/test/compilers/gcc-arm-none-eabi-7-2018-q2-update/bin/../lib/gcc/arm-none-eabi/7.3.1/thumb/v7e-m/fpv5/softfp/crtend.o
 *ltrans0*.o(.rodata*)
 *ltrans1*.o(.rodata*)
 *ltrans2*.o(.rodata*)
 *ltrans3*.o(.rodata*)
 *ltrans4*.o(.rodata*)
 *lib*.o(.rodata*)
                0x000000000801f000                . = ABSOLUTE (0x801f000)
 *fill*         0x000000000801c6ec     0x2914 
 *(.bootloader_version)
 .bootloader_version
                0x000000000801f000        0xb /tmp/ccPT7ssV.ltrans0.ltrans.o
                0x000000000801f000                bootloader_data

.glue_7         0x000000000801f00c        0x0
 .glue_7        0x000000000801f00c        0x0 linker stubs

.glue_7t        0x000000000801f00c        0x0
 .glue_7t       0x000000000801f00c        0x0 linker stubs

.vfp11_veneer   0x000000000801f00c        0x0
 .vfp11_veneer  0x000000000801f00c        0x0 linker stubs

.v4_bx          0x000000000801f00c        0x0
 .v4_bx         0x000000000801f00c        0x0 linker stubs

.iplt           0x000000000801f00c        0x0
 .iplt          0x000000000801f00c        0x0 /home/andy/code/dbc/test/compilers/gcc-arm-none-eabi-7-2018-q2-update/bin/../lib/gcc/arm-none-eabi/7.3.1/thumb/v7e-m/fpv5/softfp/crtbegin.o

.ARM.extab
 *(.ARM.extab* .gnu.linkonce.armextab.*)
                0x000000000801f00c                __exidx_start = .

.ARM.exidx      0x000000000801f00c        0x8
 *(.ARM.exidx* .gnu.linkonce.armexidx.*)
 .ARM.exidx     0x000000000801f00c        0x8 /home/andy/code/dbc/test/compilers/gcc-arm-none-eabi-7-2018-q2-update/bin/../lib/gcc/arm-none-eabi/7.3.1/../../../../arm-none-eabi/lib/thumb/v7e-m/fpv5/softfp/crt0.o
 .ARM.exidx     0x000000000801f014        0x0 BUILD/GIGA/GCC_ARM-CUSTOM/mbed-os/cmsis/CMSIS_5/CMSIS/RTOS2/RTX/Source/TOOLCHAIN_GCC/TARGET_RTOS_M4_M7/irq_cm4f.o
                                         0x18 (size before relaxing)
 .ARM.exidx     0x000000000801f014        0x0 /home/andy/code/dbc/test/compilers/gcc-arm-none-eabi-7-2018-q2-update/bin/../lib/gcc/arm-none-eabi/7.3.1/thumb/v7e-m/fpv5/softfp/libgcc.a(_udivmoddi4.o)
                                          0x8 (size before relaxing)
                0x000000000801f014                __exidx_end = .
                0x000000000801f014                __etext = .
                0x000000000801f014                _sidata = .

.rel.dyn        0x000000000801f014        0x0
 .rel.iplt      0x000000000801f014        0x0 /home/andy/code/dbc/test/compilers/gcc-arm-none-eabi-7-2018-q2-update/bin/../lib/gcc/arm-none-eabi/7.3.1/thumb/v7e-m/fpv5/softfp/crtbegin.o

.data           0x0000000024000000      0x580 load address 0x000000000801f014
                0x0000000024000000                __data_start__ = .
                0x0000000024000000                _sdata = .
 *(vtable)
 *(.data*)
 .data.DFU_Desc
                0x0000000024000000       0x1c /tmp/ccPT7ssV.ltrans0.ltrans.o
 .data.FILE_FLASH_DESC_STR
                0x000000002400001c       0x30 /tmp/ccPT7ssV.ltrans0.ltrans.o
 .data.USBD_DFU
                0x000000002400004c       0x3c /tmp/ccPT7ssV.ltrans0.ltrans.o
 .data.USBD_DFU_Flash_fops
                0x0000000024000088       0x28 /tmp/ccPT7ssV.ltrans0.ltrans.o
 .data.USBD_DeviceDesc
                0x00000000240000b0       0x12 /tmp/ccPT7ssV.ltrans0.ltrans.o
 *fill*         0x00000000240000c2        0x2 
 .data.USBD_LangIDDesc
                0x00000000240000c4        0x4 /tmp/ccPT7ssV.ltrans0.ltrans.o
 .data.USBD_StringSerial
                0x00000000240000c8       0x32 /tmp/ccPT7ssV.ltrans0.ltrans.o
 *fill*         0x00000000240000fa        0x2 
 .data._ZL16USBD_DFU_CfgDesc
                0x00000000240000fc       0x78 /tmp/ccPT7ssV.ltrans0.ltrans.o
 .data._ZL28USBD_DFU_DeviceQualifierDesc
                0x0000000024000174        0xa /tmp/ccPT7ssV.ltrans0.ltrans.o
 .data._ZZL9led_pulsePN4mbed10DigitalOutEE12ledDirection
                0x000000002400017e        0x1 /tmp/ccPT7ssV.ltrans0.ltrans.o
 .data._ZZL9led_pulsePN4mbed10DigitalOutEE14ledTargetValue
                0x000000002400017f        0x1 /tmp/ccPT7ssV.ltrans0.ltrans.o
 .data._ZL12flash_map_bd
                0x0000000024000180        0xc /tmp/ccPT7ssV.ltrans1.ltrans.o
 .data._ZL11filehandles
                0x000000002400018c      0x100 /tmp/ccPT7ssV.ltrans3.ltrans.o
 .data._ZZ5_sbrkE4heap
                0x000000002400028c        0x4 /tmp/ccPT7ssV.ltrans3.ltrans.o
 .data.os       0x0000000024000290       0xa4 /tmp/ccPT7ssV.ltrans3.ltrans.o
                0x0000000024000290                osRtxInfo
 .data.memset_func
                0x0000000024000334        0x4 /tmp/ccPT7ssV.ltrans4.ltrans.o
 .data.one.7108
                0x0000000024000338        0x4 /tmp/ccPT7ssV.ltrans4.ltrans.o
 .data._impure_ptr
                0x000000002400033c        0x4 /home/andy/code/dbc/test/compilers/gcc-arm-none-eabi-7-2018-q2-update/bin/../lib/gcc/arm-none-eabi/7.3.1/../../../../arm-none-eabi/lib/thumb/v7e-m/fpv5/softfp/libc_nano.a(lib_a-impure.o)
                0x000000002400033c                _impure_ptr
 .data.impure_data
                0x0000000024000340       0x60 /home/andy/code/dbc/test/compilers/gcc-arm-none-eabi-7-2018-q2-update/bin/../lib/gcc/arm-none-eabi/7.3.1/../../../../arm-none-eabi/lib/thumb/v7e-m/fpv5/softfp/libc_nano.a(lib_a-impure.o)
 .data._tzname  0x00000000240003a0        0x8 /home/andy/code/dbc/test/compilers/gcc-arm-none-eabi-7-2018-q2-update/bin/../lib/gcc/arm-none-eabi/7.3.1/../../../../arm-none-eabi/lib/thumb/v7e-m/fpv5/softfp/libc_nano.a(lib_a-tzvars.o)
                0x00000000240003a0                _tzname
 .data.tzinfo   0x00000000240003a8       0x58 /home/andy/code/dbc/test/compilers/gcc-arm-none-eabi-7-2018-q2-update/bin/../lib/gcc/arm-none-eabi/7.3.1/../../../../arm-none-eabi/lib/thumb/v7e-m/fpv5/softfp/libc_nano.a(lib_a-gettzinfo.o)
 .data.environ  0x0000000024000400        0x4 /home/andy/code/dbc/test/compilers/gcc-arm-none-eabi-7-2018-q2-update/bin/../lib/gcc/arm-none-eabi/7.3.1/../../../../arm-none-eabi/lib/thumb/v7e-m/fpv5/softfp/libc_nano.a(lib_a-environ.o)
                0x0000000024000400                environ
 .data.__global_locale
                0x0000000024000404      0x16c /home/andy/code/dbc/test/compilers/gcc-arm-none-eabi-7-2018-q2-update/bin/../lib/gcc/arm-none-eabi/7.3.1/../../../../arm-none-eabi/lib/thumb/v7e-m/fpv5/softfp/libc_nano.a(lib_a-locale.o)
                0x0000000024000404                __global_locale
                0x0000000024000570                . = ALIGN (0x8)
                0x0000000024000570                PROVIDE (__preinit_array_start = .)
 *(.preinit_array)
                0x0000000024000570                PROVIDE (__preinit_array_end = .)
                0x0000000024000570                . = ALIGN (0x8)
                0x0000000024000570                PROVIDE (__init_array_start = .)
 *(SORT_BY_NAME(.init_array.*))
 *(.init_array)
 .init_array    0x0000000024000570        0x4 /home/andy/code/dbc/test/compilers/gcc-arm-none-eabi-7-2018-q2-update/bin/../lib/gcc/arm-none-eabi/7.3.1/thumb/v7e-m/fpv5/softfp/crtbegin.o
 .init_array    0x0000000024000574        0x4 /tmp/ccPT7ssV.ltrans1.ltrans.o
                0x0000000024000578                PROVIDE (__init_array_end = .)
                0x0000000024000578                . = ALIGN (0x8)
                [!provide]                        PROVIDE (__fini_array_start = .)
 *(SORT_BY_NAME(.fini_array.*))
 *(.fini_array)
 .fini_array    0x0000000024000578        0x4 /home/andy/code/dbc/test/compilers/gcc-arm-none-eabi-7-2018-q2-update/bin/../lib/gcc/arm-none-eabi/7.3.1/thumb/v7e-m/fpv5/softfp/crtbegin.o
                [!provide]                        PROVIDE (__fini_array_end = .)
 *(.jcr*)
                0x0000000024000580                . = ALIGN (0x8)
 *fill*         0x000000002400057c        0x4 
                0x0000000024000580                __data_end__ = .
                0x0000000024000580                _edata = .

.igot.plt       0x0000000024000580        0x0 load address 0x000000000801f594
 .igot.plt      0x0000000024000580        0x0 /home/andy/code/dbc/test/compilers/gcc-arm-none-eabi-7-2018-q2-update/bin/../lib/gcc/arm-none-eabi/7.3.1/thumb/v7e-m/fpv5/softfp/crtbegin.o

.uninitialized  0x0000000024000580        0x0
                0x0000000024000580                . = ALIGN (0x20)
                0x0000000024000580                __uninitialized_start = .
 *(.uninitialized)
 *(.keep.uninitialized)
                0x0000000024000580                . = ALIGN (0x20)
                0x0000000024000580                __uninitialized_end = .

.bss            0x0000000024000580    0x2a138 load address 0x000000000801f598
                0x0000000024000580                . = ALIGN (0x8)
                0x0000000024000580                __bss_start__ = .
                0x0000000024000580                _sbss = .
 *(.bss*)
 .bss           0x0000000024000580       0x1c /home/andy/code/dbc/test/compilers/gcc-arm-none-eabi-7-2018-q2-update/bin/../lib/gcc/arm-none-eabi/7.3.1/thumb/v7e-m/fpv5/softfp/crtbegin.o
 .bss.BOOTLOADER_DESC_STR
                0x000000002400059c       0x30 /tmp/ccPT7ssV.ltrans0.ltrans.o
 .bss.FT0       0x00000000240005cc      0x400 /tmp/ccPT7ssV.ltrans0.ltrans.o
 .bss.FT1       0x00000000240009cc      0x400 /tmp/ccPT7ssV.ltrans0.ltrans.o
 .bss.FT2       0x0000000024000dcc      0x400 /tmp/ccPT7ssV.ltrans0.ltrans.o
 .bss.FT3       0x00000000240011cc      0x400 /tmp/ccPT7ssV.ltrans0.ltrans.o
 .bss.RSb       0x00000000240015cc      0x100 /tmp/ccPT7ssV.ltrans0.ltrans.o
 .bss.RtcHandle
                0x00000000240016cc       0x24 /tmp/ccPT7ssV.ltrans0.ltrans.o
 .bss.USBD_Device
                0x00000000240016f0      0x2c4 /tmp/ccPT7ssV.ltrans0.ltrans.o
 .bss.USBD_StrDesc
                0x00000000240019b4      0x100 /tmp/ccPT7ssV.ltrans0.ltrans.o
 .bss._ZGVZN4mbed11BlockDevice20get_default_instanceEvE10default_bd
                0x0000000024001ab4        0x4 /tmp/ccPT7ssV.ltrans0.ltrans.o
 .bss._ZGVZN4mbed11ResetReason3getEvE6reason
                0x0000000024001ab8        0x4 /tmp/ccPT7ssV.ltrans0.ltrans.o
 .bss._ZGVZN4mbed11ResetReason7get_rawEvE6reason
                0x0000000024001abc        0x4 /tmp/ccPT7ssV.ltrans0.ltrans.o
 .bss._ZZL25USBD_DFU_GetUsrStringDescP19_USBD_HandleTypeDefhPtE12USBD_StrDesc
                0x0000000024001ac0       0xff /tmp/ccPT7ssV.ltrans0.ltrans.o
 .bss._ZZL9led_pulsePN4mbed10DigitalOutEE12ledKeepValue
                0x0000000024001bbf        0x1 /tmp/ccPT7ssV.ltrans0.ltrans.o
 .bss._ZZL9led_pulsePN4mbed10DigitalOutEE7divisor
                0x0000000024001bc0        0x4 /tmp/ccPT7ssV.ltrans0.ltrans.o
 *fill*         0x0000000024001bc4        0x4 
 .bss._ZZN4mbed11BlockDevice20get_default_instanceEvE10default_bd
                0x0000000024001bc8      0x208 /tmp/ccPT7ssV.ltrans0.ltrans.o
 .bss._ZZN4mbed11ResetReason3getEvE6reason
                0x0000000024001dd0        0x1 /tmp/ccPT7ssV.ltrans0.ltrans.o
 *fill*         0x0000000024001dd1        0x3 
 .bss._ZZN4mbed11ResetReason7get_rawEvE6reason
                0x0000000024001dd4        0x4 /tmp/ccPT7ssV.ltrans0.ltrans.o
 .bss._main_stack
                0x0000000024001dd8     0x1000 /tmp/ccPT7ssV.ltrans0.ltrans.o
 .bss._main_thread_attr
                0x0000000024002dd8       0x24 /tmp/ccPT7ssV.ltrans0.ltrans.o
 .bss.bd        0x0000000024002dfc        0x4 /tmp/ccPT7ssV.ltrans0.ltrans.o
 .bss.cfgidx.13803
                0x0000000024002e00        0x1 /tmp/ccPT7ssV.ltrans0.ltrans.o
 *fill*         0x0000000024002e01        0x3 
 .bss.env_mutex_attr
                0x0000000024002e04       0x10 /tmp/ccPT7ssV.ltrans0.ltrans.o
 .bss.env_mutex_obj
                0x0000000024002e14       0x1c /tmp/ccPT7ssV.ltrans0.ltrans.o
 .bss.flash     0x0000000024002e30        0x8 /tmp/ccPT7ssV.ltrans0.ltrans.o
 .bss.fs        0x0000000024002e38        0x4 /tmp/ccPT7ssV.ltrans0.ltrans.o
 .bss.hpcd      0x0000000024002e3c      0x408 /tmp/ccPT7ssV.ltrans0.ltrans.o
 .bss.malloc_mutex_attr
                0x0000000024003244       0x10 /tmp/ccPT7ssV.ltrans0.ltrans.o
 .bss.malloc_mutex_obj
                0x0000000024003254       0x1c /tmp/ccPT7ssV.ltrans0.ltrans.o
 .bss.os        0x0000000024003270       0x40 /tmp/ccPT7ssV.ltrans0.ltrans.o
 .bss.os.msgqueue.cb
                0x00000000240032b0       0x34 /tmp/ccPT7ssV.ltrans0.ltrans.o
 .bss.os.msgqueue.mem
                0x00000000240032e4       0x50 /tmp/ccPT7ssV.ltrans0.ltrans.o
 .bss.os.thread.cb
                0x0000000024003334       0xcc /tmp/ccPT7ssV.ltrans0.ltrans.o
 .bss.os.thread.idle.stack
                0x0000000024003400      0x300 /tmp/ccPT7ssV.ltrans0.ltrans.o
 .bss.os.thread.timer.stack
                0x0000000024003700      0x300 /tmp/ccPT7ssV.ltrans0.ltrans.o
 .bss.primary_slot_sectors.7989
                0x0000000024003a00     0x1e00 /tmp/ccPT7ssV.ltrans0.ltrans.o
 .bss.rtc_initialized
                0x0000000024005800        0x4 /tmp/ccPT7ssV.ltrans0.ltrans.o
 .bss.scratch_sectors.7991
                0x0000000024005804     0x1e00 /tmp/ccPT7ssV.ltrans0.ltrans.o
 .bss.secondary_slot_sectors.7990
                0x0000000024007604     0x1e00 /tmp/ccPT7ssV.ltrans0.ltrans.o
 .bss.singleton_mutex_obj
                0x0000000024009404       0x1c /tmp/ccPT7ssV.ltrans0.ltrans.o
 .bss.FSb.lto_priv.382
                0x0000000024009420      0x100 /tmp/ccPT7ssV.ltrans1.ltrans.o
                0x0000000024009420                FSb.lto_priv.382
 .bss.RCON.lto_priv.383
                0x0000000024009520       0x28 /tmp/ccPT7ssV.ltrans1.ltrans.o
                0x0000000024009520                RCON.lto_priv.383
 .bss.TimMasterHandle
                0x0000000024009548       0x4c /tmp/ccPT7ssV.ltrans1.ltrans.o
 .bss._ZL10block_info.lto_priv.403
                0x0000000024009594       0x40 /tmp/ccPT7ssV.ltrans1.ltrans.o
                0x0000000024009594                _ZL10block_info.lto_priv.403
 .bss._ZL10open_count
                0x00000000240095d4        0xc /tmp/ccPT7ssV.ltrans1.ltrans.o
 .bss._ZL11flash_areas
                0x00000000240095e0       0x24 /tmp/ccPT7ssV.ltrans1.ltrans.o
 *fill*         0x0000000024009604        0x4 
 .bss._ZL13restart_timer.lto_priv.292
                0x0000000024009608       0x40 /tmp/ccPT7ssV.ltrans1.ltrans.o
                0x0000000024009608                _ZL13restart_timer.lto_priv.292
 .bss._ZL13restart_timer.lto_priv.293
                0x0000000024009648       0x40 /tmp/ccPT7ssV.ltrans1.ltrans.o
                0x0000000024009648                _ZL13restart_timer.lto_priv.293
 .bss._ZL16BlockTableLoaded.lto_priv.402
                0x0000000024009688        0x1 /tmp/ccPT7ssV.ltrans1.ltrans.o
                0x0000000024009688                _ZL16BlockTableLoaded.lto_priv.402
 *fill*         0x0000000024009689        0x7 
 .bss._ZL18mcuboot_primary_bd
                0x0000000024009690       0x28 /tmp/ccPT7ssV.ltrans1.ltrans.o
 .bss._ZN16QSPIFBlockDevice28_active_qspif_flash_csel_arrE
                0x00000000240096b8        0x4 /tmp/ccPT7ssV.ltrans1.ltrans.o
                0x00000000240096b8                QSPIFBlockDevice::_active_qspif_flash_csel_arr
 .bss._ZN4mbed8FileBase5_headE
                0x00000000240096bc        0x4 /tmp/ccPT7ssV.ltrans1.ltrans.o
                0x00000000240096bc                mbed::FileBase::_head
 .bss._ZN4mbed8FileBase6_mutexE
                0x00000000240096c0       0x28 /tmp/ccPT7ssV.ltrans1.ltrans.o
                0x00000000240096c0                mbed::FileBase::_mutex
 .bss.aes_init_done
                0x00000000240096e8        0x4 /tmp/ccPT7ssV.ltrans1.ltrans.o
 .bss.blue      0x00000000240096ec       0x1c /tmp/ccPT7ssV.ltrans1.ltrans.o
                0x00000000240096ec                blue
 .bss.boot_data.lto_priv.401
                0x0000000024009708      0x3c0 /tmp/ccPT7ssV.ltrans1.ltrans.o
                0x0000000024009708                boot_data.lto_priv.401
 .bss.boot_status_fails
                0x0000000024009ac8        0x4 /tmp/ccPT7ssV.ltrans1.ltrans.o
 .bss.buf.7900  0x0000000024009acc    0x20000 /tmp/ccPT7ssV.ltrans1.ltrans.o
 .bss.debug_enabled
                0x0000000024029acc        0x1 /tmp/ccPT7ssV.ltrans1.ltrans.o
                0x0000000024029acc                debug_enabled
 *fill*         0x0000000024029acd        0x3 
 .bss.dfu_secondary_bd
                0x0000000024029ad0        0x4 /tmp/ccPT7ssV.ltrans1.ltrans.o
                0x0000000024029ad0                dfu_secondary_bd
 *fill*         0x0000000024029ad4        0x4 
 .bss.events.lto_priv.363
                0x0000000024029ad8       0x38 /tmp/ccPT7ssV.ltrans1.ltrans.o
                0x0000000024029ad8                events.lto_priv.363
 .bss.green     0x0000000024029b10       0x1c /tmp/ccPT7ssV.ltrans1.ltrans.o
                0x0000000024029b10                green
 .bss.mbed_error_in_progress
                0x0000000024029b2c        0x1 /tmp/ccPT7ssV.ltrans1.ltrans.o
                0x0000000024029b2c                mbed_error_in_progress
 *fill*         0x0000000024029b2d        0x3 
 .bss.mcuboot_secondary_bd
                0x0000000024029b30        0x4 /tmp/ccPT7ssV.ltrans1.ltrans.o
 .bss.pFlash    0x0000000024029b34       0x1c /tmp/ccPT7ssV.ltrans1.ltrans.o
                0x0000000024029b34                pFlash
 .bss.prev_tick_remainder
                0x0000000024029b50        0x2 /tmp/ccPT7ssV.ltrans1.ltrans.o
 *fill*         0x0000000024029b52        0x2 
 .bss.prev_time
                0x0000000024029b54        0x4 /tmp/ccPT7ssV.ltrans1.ltrans.o
 .bss.qspi_flash
                0x0000000024029b58        0x4 /tmp/ccPT7ssV.ltrans1.ltrans.o
                0x0000000024029b58                qspi_flash
 .bss.red       0x0000000024029b5c       0x1c /tmp/ccPT7ssV.ltrans1.ltrans.o
                0x0000000024029b5c                red
 .bss.stdio_uart
                0x0000000024029b78       0x1c /tmp/ccPT7ssV.ltrans1.ltrans.o
                0x0000000024029b78                stdio_uart
 *fill*         0x0000000024029b94        0x4 
 .bss.swap_ticker
                0x0000000024029b98       0x40 /tmp/ccPT7ssV.ltrans1.ltrans.o
                0x0000000024029b98                swap_ticker
 .bss.tmpbuf.7819
                0x0000000024029bd8      0x100 /tmp/ccPT7ssV.ltrans1.ltrans.o
 .bss.total_ticks
                0x0000000024029cd8        0x4 /tmp/ccPT7ssV.ltrans1.ltrans.o
 .bss.uart_handlers
                0x0000000024029cdc      0x630 /tmp/ccPT7ssV.ltrans1.ltrans.o
                0x0000000024029cdc                uart_handlers
 .bss.writeQueue
                0x000000002402a30c       0x5c /tmp/ccPT7ssV.ltrans1.ltrans.o
                0x000000002402a30c                writeQueue
 .bss.writeThread
                0x000000002402a368       0xbc /tmp/ccPT7ssV.ltrans1.ltrans.o
                0x000000002402a368                writeThread
 .bss._ZL4Fsid  0x000000002402a424        0x2 /tmp/ccPT7ssV.ltrans2.ltrans.o
 *fill*         0x000000002402a426        0x2 
 .bss._ZL5FatFs
                0x000000002402a428       0x10 /tmp/ccPT7ssV.ltrans2.ltrans.o
 .bss._ZL6_mutex
                0x000000002402a438       0x28 /tmp/ccPT7ssV.ltrans2.ltrans.o
 .bss._ZN4mbedL10_ffs_mutexE
                0x000000002402a460       0x28 /tmp/ccPT7ssV.ltrans2.ltrans.o
 .bss._ZN4mbedL4_ffsE.lto_priv.352
                0x000000002402a488       0x10 /tmp/ccPT7ssV.ltrans2.ltrans.o
                0x000000002402a488                _ZN4mbedL4_ffsE.lto_priv.352
 .bss._ZGVZL15default_consolevE7console
                0x000000002402a498        0x4 /tmp/ccPT7ssV.ltrans3.ltrans.o
 .bss._ZL13stdio_in_prev
                0x000000002402a49c       0x40 /tmp/ccPT7ssV.ltrans3.ltrans.o
 .bss._ZL14stdio_out_prev
                0x000000002402a4dc       0x40 /tmp/ccPT7ssV.ltrans3.ltrans.o
 .bss._ZL16filehandle_mutex
                0x000000002402a51c       0x28 /tmp/ccPT7ssV.ltrans3.ltrans.o
 .bss._ZN16QSPIFBlockDevice14_devices_mutexE
                0x000000002402a544       0x28 /tmp/ccPT7ssV.ltrans3.ltrans.o
                0x000000002402a544                QSPIFBlockDevice::_devices_mutex
 .bss._ZN16QSPIFBlockDevice34_number_of_active_qspif_flash_cselE
                0x000000002402a56c        0x4 /tmp/ccPT7ssV.ltrans3.ltrans.o
                0x000000002402a56c                QSPIFBlockDevice::_number_of_active_qspif_flash_csel
 .bss._ZN4mbed8FileBase8_defaultE
                0x000000002402a570        0x4 /tmp/ccPT7ssV.ltrans3.ltrans.o
 .bss._ZN4mbed8FlashIAP6_mutexE
                0x000000002402a574       0x28 /tmp/ccPT7ssV.ltrans3.ltrans.o
                0x000000002402a574                mbed::FlashIAP::_mutex
 *fill*         0x000000002402a59c        0x4 
 .bss._ZN4mbed8internal12_GLOBAL__N_113os_timer_dataE
                0x000000002402a5a0       0x48 /tmp/ccPT7ssV.ltrans3.ltrans.o
 .bss._ZN4mbed8internal8os_timerE
                0x000000002402a5e8        0x4 /tmp/ccPT7ssV.ltrans3.ltrans.o
                0x000000002402a5e8                mbed::internal::os_timer
 .bss._ZZL15default_consolevE7console
                0x000000002402a5ec        0x4 /tmp/ccPT7ssV.ltrans3.ltrans.o
 .bss._ZZN4rtos6Kernel4impl14get_tick_countEvE6tick_h
                0x000000002402a5f0        0x4 /tmp/ccPT7ssV.ltrans3.ltrans.o
 .bss._ZZN4rtos6Kernel4impl14get_tick_countEvE6tick_l
                0x000000002402a5f4        0x4 /tmp/ccPT7ssV.ltrans3.ltrans.o
 .bss.critical_interrupts_enabled
                0x000000002402a5f8        0x1 /tmp/ccPT7ssV.ltrans3.ltrans.o
 *fill*         0x000000002402a5f9        0x3 
 .bss.critical_section_reentrancy_counter
                0x000000002402a5fc        0x4 /tmp/ccPT7ssV.ltrans3.ltrans.o
 .bss.env_mutex_id.lto_priv.385
                0x000000002402a600        0x4 /tmp/ccPT7ssV.ltrans3.ltrans.o
                0x000000002402a600                env_mutex_id.lto_priv.385
 .bss.error_count
                0x000000002402a604        0x4 /tmp/ccPT7ssV.ltrans3.ltrans.o
 .bss.halt_in_progress
                0x000000002402a608        0x1 /tmp/ccPT7ssV.ltrans3.ltrans.o
 *fill*         0x000000002402a609        0x3 
 .bss.last_error_ctx
                0x000000002402a60c       0x34 /tmp/ccPT7ssV.ltrans3.ltrans.o
 .bss.malloc_mutex_id.lto_priv.384
                0x000000002402a640        0x4 /tmp/ccPT7ssV.ltrans3.ltrans.o
                0x000000002402a640                malloc_mutex_id.lto_priv.384
 .bss.mem_wn_lock
                0x000000002402a644        0x2 /tmp/ccPT7ssV.ltrans3.ltrans.o
 .bss.mem_xn_lock
                0x000000002402a646        0x2 /tmp/ccPT7ssV.ltrans3.ltrans.o
 .bss.singleton_mutex_id
                0x000000002402a648        0x4 /tmp/ccPT7ssV.ltrans3.ltrans.o
                0x000000002402a648                singleton_mutex_id
 .bss.state_saved
                0x000000002402a64c        0x1 /tmp/ccPT7ssV.ltrans3.ltrans.o
 *fill*         0x000000002402a64d        0x3 
 .bss.stdio_uart_inited
                0x000000002402a650        0x4 /tmp/ccPT7ssV.ltrans3.ltrans.o
 .bss.terminate_hook.lto_priv.386
                0x000000002402a654        0x4 /tmp/ccPT7ssV.ltrans3.ltrans.o
                0x000000002402a654                terminate_hook.lto_priv.386
 .bss._ZN4mbed4QSPI6_mutexE
                0x000000002402a658       0x28 /tmp/ccPT7ssV.ltrans4.ltrans.o
 .bss.__malloc_free_list
                0x000000002402a680        0x4 /home/andy/code/dbc/test/compilers/gcc-arm-none-eabi-7-2018-q2-update/bin/../lib/gcc/arm-none-eabi/7.3.1/../../../../arm-none-eabi/lib/thumb/v7e-m/fpv5/softfp/libc_nano.a(lib_a-nano-mallocr.o)
                0x000000002402a680                __malloc_free_list
 .bss.__malloc_sbrk_start
                0x000000002402a684        0x4 /home/andy/code/dbc/test/compilers/gcc-arm-none-eabi-7-2018-q2-update/bin/../lib/gcc/arm-none-eabi/7.3.1/../../../../arm-none-eabi/lib/thumb/v7e-m/fpv5/softfp/libc_nano.a(lib_a-nano-mallocr.o)
                0x000000002402a684                __malloc_sbrk_start
 .bss.__tzname_dst
                0x000000002402a688        0xb /home/andy/code/dbc/test/compilers/gcc-arm-none-eabi-7-2018-q2-update/bin/../lib/gcc/arm-none-eabi/7.3.1/../../../../arm-none-eabi/lib/thumb/v7e-m/fpv5/softfp/libc_nano.a(lib_a-tzset_r.o)
 .bss.__tzname_std
                0x000000002402a693        0xb /home/andy/code/dbc/test/compilers/gcc-arm-none-eabi-7-2018-q2-update/bin/../lib/gcc/arm-none-eabi/7.3.1/../../../../arm-none-eabi/lib/thumb/v7e-m/fpv5/softfp/libc_nano.a(lib_a-tzset_r.o)
 *fill*         0x000000002402a69e        0x2 
 .bss.prev_tzenv
                0x000000002402a6a0        0x4 /home/andy/code/dbc/test/compilers/gcc-arm-none-eabi-7-2018-q2-update/bin/../lib/gcc/arm-none-eabi/7.3.1/../../../../arm-none-eabi/lib/thumb/v7e-m/fpv5/softfp/libc_nano.a(lib_a-tzset_r.o)
 .bss._daylight
                0x000000002402a6a4        0x4 /home/andy/code/dbc/test/compilers/gcc-arm-none-eabi-7-2018-q2-update/bin/../lib/gcc/arm-none-eabi/7.3.1/../../../../arm-none-eabi/lib/thumb/v7e-m/fpv5/softfp/libc_nano.a(lib_a-tzvars.o)
                0x000000002402a6a4                _daylight
 .bss._timezone
                0x000000002402a6a8        0x4 /home/andy/code/dbc/test/compilers/gcc-arm-none-eabi-7-2018-q2-update/bin/../lib/gcc/arm-none-eabi/7.3.1/../../../../arm-none-eabi/lib/thumb/v7e-m/fpv5/softfp/libc_nano.a(lib_a-tzvars.o)
                0x000000002402a6a8                _timezone
 .bss.initial_env
                0x000000002402a6ac        0x4 /home/andy/code/dbc/test/compilers/gcc-arm-none-eabi-7-2018-q2-update/bin/../lib/gcc/arm-none-eabi/7.3.1/../../../../arm-none-eabi/lib/thumb/v7e-m/fpv5/softfp/libc_nano.a(lib_a-environ.o)
 *(COMMON)
 COMMON         0x000000002402a6b0        0x4 /home/andy/code/dbc/test/compilers/gcc-arm-none-eabi-7-2018-q2-update/bin/../lib/gcc/arm-none-eabi/7.3.1/../../../../arm-none-eabi/lib/thumb/v7e-m/fpv5/softfp/libc_nano.a(lib_a-reent.o)
                0x000000002402a6b0                errno
                0x000000002402a6b8                . = ALIGN (0x8)
 *fill*         0x000000002402a6b4        0x4 
                0x000000002402a6b8                __bss_end__ = .
                0x000000002402a6b8                _ebss = .

.heap           0x000000002402a6b8    0x55548
                0x000000002402a6b8                __end__ = .
                [!provide]                        PROVIDE (end = .)
 *(.heap*)
                0x000000002407fc00                . = ((ORIGIN (RAM) + LENGTH (RAM)) - 0x400)
 *fill*         0x000000002402a6b8    0x55548 
                0x000000002407fc00                __HeapLimit = .

.stack_dummy
 *(.stack*)
                0x0000000024080000                __StackTop = (ORIGIN (RAM) + LENGTH (RAM))
                0x0000000024080000                _estack = __StackTop
                0x000000002407fc00                __StackLimit = (__StackTop - 0x400)
                0x0000000024080000                PROVIDE (__stack = __StackTop)
                0x0000000000000001                ASSERT ((__StackLimit >= __HeapLimit), region RAM overflowed with stack)

.lwip_sec       0x0000000030000000    0x44000 load address 0x000000000801f014
                0x0000000030040000                . = ABSOLUTE (0x30040000)
 *fill*         0x0000000030000000    0x40000 
 *(.RxDecripSection)
                0x0000000030040100                . = ABSOLUTE (0x30040100)
 *fill*         0x0000000030040000      0x100 
 *(.TxDecripSection)
                0x0000000030040400                . = ABSOLUTE (0x30040400)
 *fill*         0x0000000030040100      0x300 
 *(.RxArraySection)
                0x0000000030044000                . = ABSOLUTE (0x30044000)
 *fill*         0x0000000030040400     0x3c00 
 *(.ethusbram)
OUTPUT(./BUILD/GIGA/GCC_ARM-CUSTOM/mcuboot_giga_wifi_application.elf elf32-littlearm)

.ARM.attributes
                0x0000000000000000       0x2c
 .ARM.attributes
                0x0000000000000000       0x20 /home/andy/code/dbc/test/compilers/gcc-arm-none-eabi-7-2018-q2-update/bin/../lib/gcc/arm-none-eabi/7.3.1/thumb/v7e-m/fpv5/softfp/crti.o
 .ARM.attributes
                0x0000000000000020       0x30 /home/andy/code/dbc/test/compilers/gcc-arm-none-eabi-7-2018-q2-update/bin/../lib/gcc/arm-none-eabi/7.3.1/thumb/v7e-m/fpv5/softfp/crtbegin.o
 .ARM.attributes
                0x0000000000000050       0x1e /home/andy/code/dbc/test/compilers/gcc-arm-none-eabi-7-2018-q2-update/bin/../lib/gcc/arm-none-eabi/7.3.1/../../../../arm-none-eabi/lib/thumb/v7e-m/fpv5/softfp/crt0.o
 .ARM.attributes
                0x000000000000006e       0x25 BUILD/GIGA/GCC_ARM-CUSTOM/mbed-os/cmsis/CMSIS_5/CMSIS/RTOS2/RTX/Source/TOOLCHAIN_GCC/TARGET_RTOS_M4_M7/irq_cm4f.o
 .ARM.attributes
                0x0000000000000093       0x21 BUILD/GIGA/GCC_ARM-CUSTOM/mbed-os/targets/TARGET_STM/TARGET_STM32H7/TARGET_STM32H747xI/TARGET_STM32H747xI_CM7/TOOLCHAIN_GCC_ARM/startup_stm32h747xx.o
 .ARM.attributes
                0x00000000000000b4       0x33 /tmp/ccPT7ssV.ltrans0.ltrans.o
 .ARM.attributes
                0x00000000000000e7       0x33 /tmp/ccPT7ssV.ltrans1.ltrans.o
 .ARM.attributes
                0x000000000000011a       0x33 /tmp/ccPT7ssV.ltrans2.ltrans.o
 .ARM.attributes
                0x000000000000014d       0x33 /tmp/ccPT7ssV.ltrans3.ltrans.o
 .ARM.attributes
                0x0000000000000180       0x33 /tmp/ccPT7ssV.ltrans4.ltrans.o
 .ARM.attributes
                0x00000000000001b3       0x30 /home/andy/code/dbc/test/compilers/gcc-arm-none-eabi-7-2018-q2-update/bin/../lib/gcc/arm-none-eabi/7.3.1/../../../../arm-none-eabi/lib/thumb/v7e-m/fpv5/softfp/libc_nano.a(lib_a-errno.o)
 .ARM.attributes
                0x00000000000001e3       0x30 /home/andy/code/dbc/test/compilers/gcc-arm-none-eabi-7-2018-q2-update/bin/../lib/gcc/arm-none-eabi/7.3.1/../../../../arm-none-eabi/lib/thumb/v7e-m/fpv5/softfp/libc_nano.a(lib_a-fclose.o)
 .ARM.attributes
                0x0000000000000213       0x30 /home/andy/code/dbc/test/compilers/gcc-arm-none-eabi-7-2018-q2-update/bin/../lib/gcc/arm-none-eabi/7.3.1/../../../../arm-none-eabi/lib/thumb/v7e-m/fpv5/softfp/libc_nano.a(lib_a-fflush.o)
 .ARM.attributes
                0x0000000000000243       0x30 /home/andy/code/dbc/test/compilers/gcc-arm-none-eabi-7-2018-q2-update/bin/../lib/gcc/arm-none-eabi/7.3.1/../../../../arm-none-eabi/lib/thumb/v7e-m/fpv5/softfp/libc_nano.a(lib_a-findfp.o)
 .ARM.attributes
                0x0000000000000273       0x30 /home/andy/code/dbc/test/compilers/gcc-arm-none-eabi-7-2018-q2-update/bin/../lib/gcc/arm-none-eabi/7.3.1/../../../../arm-none-eabi/lib/thumb/v7e-m/fpv5/softfp/libc_nano.a(lib_a-fopen.o)
 .ARM.attributes
                0x00000000000002a3       0x30 /home/andy/code/dbc/test/compilers/gcc-arm-none-eabi-7-2018-q2-update/bin/../lib/gcc/arm-none-eabi/7.3.1/../../../../arm-none-eabi/lib/thumb/v7e-m/fpv5/softfp/libc_nano.a(lib_a-fread.o)
 .ARM.attributes
                0x00000000000002d3       0x30 /home/andy/code/dbc/test/compilers/gcc-arm-none-eabi-7-2018-q2-update/bin/../lib/gcc/arm-none-eabi/7.3.1/../../../../arm-none-eabi/lib/thumb/v7e-m/fpv5/softfp/libc_nano.a(lib_a-fseek.o)
 .ARM.attributes
                0x0000000000000303       0x30 /home/andy/code/dbc/test/compilers/gcc-arm-none-eabi-7-2018-q2-update/bin/../lib/gcc/arm-none-eabi/7.3.1/../../../../arm-none-eabi/lib/thumb/v7e-m/fpv5/softfp/libc_nano.a(lib_a-fseeko.o)
 .ARM.attributes
                0x0000000000000333       0x30 /home/andy/code/dbc/test/compilers/gcc-arm-none-eabi-7-2018-q2-update/bin/../lib/gcc/arm-none-eabi/7.3.1/../../../../arm-none-eabi/lib/thumb/v7e-m/fpv5/softfp/libc_nano.a(lib_a-ftell.o)
 .ARM.attributes
                0x0000000000000363       0x30 /home/andy/code/dbc/test/compilers/gcc-arm-none-eabi-7-2018-q2-update/bin/../lib/gcc/arm-none-eabi/7.3.1/../../../../arm-none-eabi/lib/thumb/v7e-m/fpv5/softfp/libc_nano.a(lib_a-ftello.o)
 .ARM.attributes
                0x0000000000000393       0x30 /home/andy/code/dbc/test/compilers/gcc-arm-none-eabi-7-2018-q2-update/bin/../lib/gcc/arm-none-eabi/7.3.1/../../../../arm-none-eabi/lib/thumb/v7e-m/fpv5/softfp/libc_nano.a(lib_a-fwalk.o)
 .ARM.attributes
                0x00000000000003c3       0x30 /home/andy/code/dbc/test/compilers/gcc-arm-none-eabi-7-2018-q2-update/bin/../lib/gcc/arm-none-eabi/7.3.1/../../../../arm-none-eabi/lib/thumb/v7e-m/fpv5/softfp/libc_nano.a(lib_a-impure.o)
 .ARM.attributes
                0x00000000000003f3       0x30 /home/andy/code/dbc/test/compilers/gcc-arm-none-eabi-7-2018-q2-update/bin/../lib/gcc/arm-none-eabi/7.3.1/../../../../arm-none-eabi/lib/thumb/v7e-m/fpv5/softfp/libc_nano.a(lib_a-init.o)
 .ARM.attributes
                0x0000000000000423       0x30 /home/andy/code/dbc/test/compilers/gcc-arm-none-eabi-7-2018-q2-update/bin/../lib/gcc/arm-none-eabi/7.3.1/../../../../arm-none-eabi/lib/thumb/v7e-m/fpv5/softfp/libc_nano.a(lib_a-lcltime.o)
 .ARM.attributes
                0x0000000000000453       0x30 /home/andy/code/dbc/test/compilers/gcc-arm-none-eabi-7-2018-q2-update/bin/../lib/gcc/arm-none-eabi/7.3.1/../../../../arm-none-eabi/lib/thumb/v7e-m/fpv5/softfp/libc_nano.a(lib_a-lcltime_r.o)
 .ARM.attributes
                0x0000000000000483       0x30 /home/andy/code/dbc/test/compilers/gcc-arm-none-eabi-7-2018-q2-update/bin/../lib/gcc/arm-none-eabi/7.3.1/../../../../arm-none-eabi/lib/thumb/v7e-m/fpv5/softfp/libc_nano.a(lib_a-makebuf.o)
 .ARM.attributes
                0x00000000000004b3       0x30 /home/andy/code/dbc/test/compilers/gcc-arm-none-eabi-7-2018-q2-update/bin/../lib/gcc/arm-none-eabi/7.3.1/../../../../arm-none-eabi/lib/thumb/v7e-m/fpv5/softfp/libc_nano.a(lib_a-malloc.o)
 .ARM.attributes
                0x00000000000004e3       0x1e /home/andy/code/dbc/test/compilers/gcc-arm-none-eabi-7-2018-q2-update/bin/../lib/gcc/arm-none-eabi/7.3.1/../../../../arm-none-eabi/lib/thumb/v7e-m/fpv5/softfp/libc_nano.a(lib_a-memchr.o)
 .ARM.attributes
                0x0000000000000501       0x30 /home/andy/code/dbc/test/compilers/gcc-arm-none-eabi-7-2018-q2-update/bin/../lib/gcc/arm-none-eabi/7.3.1/../../../../arm-none-eabi/lib/thumb/v7e-m/fpv5/softfp/libc_nano.a(lib_a-memcpy-stub.o)
 .ARM.attributes
                0x0000000000000531       0x30 /home/andy/code/dbc/test/compilers/gcc-arm-none-eabi-7-2018-q2-update/bin/../lib/gcc/arm-none-eabi/7.3.1/../../../../arm-none-eabi/lib/thumb/v7e-m/fpv5/softfp/libc_nano.a(lib_a-memset.o)
 .ARM.attributes
                0x0000000000000561       0x30 /home/andy/code/dbc/test/compilers/gcc-arm-none-eabi-7-2018-q2-update/bin/../lib/gcc/arm-none-eabi/7.3.1/../../../../arm-none-eabi/lib/thumb/v7e-m/fpv5/softfp/libc_nano.a(lib_a-month_lengths.o)
 .ARM.attributes
                0x0000000000000591       0x30 /home/andy/code/dbc/test/compilers/gcc-arm-none-eabi-7-2018-q2-update/bin/../lib/gcc/arm-none-eabi/7.3.1/../../../../arm-none-eabi/lib/thumb/v7e-m/fpv5/softfp/libc_nano.a(lib_a-nano-callocr.o)
 .ARM.attributes
                0x00000000000005c1       0x30 /home/andy/code/dbc/test/compilers/gcc-arm-none-eabi-7-2018-q2-update/bin/../lib/gcc/arm-none-eabi/7.3.1/../../../../arm-none-eabi/lib/thumb/v7e-m/fpv5/softfp/libc_nano.a(lib_a-nano-freer.o)
 .ARM.attributes
                0x00000000000005f1       0x30 /home/andy/code/dbc/test/compilers/gcc-arm-none-eabi-7-2018-q2-update/bin/../lib/gcc/arm-none-eabi/7.3.1/../../../../arm-none-eabi/lib/thumb/v7e-m/fpv5/softfp/libc_nano.a(lib_a-nano-mallocr.o)
 .ARM.attributes
                0x0000000000000621       0x30 /home/andy/code/dbc/test/compilers/gcc-arm-none-eabi-7-2018-q2-update/bin/../lib/gcc/arm-none-eabi/7.3.1/../../../../arm-none-eabi/lib/thumb/v7e-m/fpv5/softfp/libc_nano.a(lib_a-nano-reallocr.o)
 .ARM.attributes
                0x0000000000000651       0x30 /home/andy/code/dbc/test/compilers/gcc-arm-none-eabi-7-2018-q2-update/bin/../lib/gcc/arm-none-eabi/7.3.1/../../../../arm-none-eabi/lib/thumb/v7e-m/fpv5/softfp/libc_nano.a(lib_a-openr.o)
 .ARM.attributes
                0x0000000000000681       0x30 /home/andy/code/dbc/test/compilers/gcc-arm-none-eabi-7-2018-q2-update/bin/../lib/gcc/arm-none-eabi/7.3.1/../../../../arm-none-eabi/lib/thumb/v7e-m/fpv5/softfp/libc_nano.a(lib_a-reent.o)
 .ARM.attributes
                0x00000000000006b1       0x30 /home/andy/code/dbc/test/compilers/gcc-arm-none-eabi-7-2018-q2-update/bin/../lib/gcc/arm-none-eabi/7.3.1/../../../../arm-none-eabi/lib/thumb/v7e-m/fpv5/softfp/libc_nano.a(lib_a-refill.o)
 .ARM.attributes
                0x00000000000006e1       0x30 /home/andy/code/dbc/test/compilers/gcc-arm-none-eabi-7-2018-q2-update/bin/../lib/gcc/arm-none-eabi/7.3.1/../../../../arm-none-eabi/lib/thumb/v7e-m/fpv5/softfp/libc_nano.a(lib_a-sbrkr.o)
 .ARM.attributes
                0x0000000000000711       0x30 /home/andy/code/dbc/test/compilers/gcc-arm-none-eabi-7-2018-q2-update/bin/../lib/gcc/arm-none-eabi/7.3.1/../../../../arm-none-eabi/lib/thumb/v7e-m/fpv5/softfp/libc_nano.a(lib_a-stdio.o)
 .ARM.attributes
                0x0000000000000741       0x30 /home/andy/code/dbc/test/compilers/gcc-arm-none-eabi-7-2018-q2-update/bin/../lib/gcc/arm-none-eabi/7.3.1/../../../../arm-none-eabi/lib/thumb/v7e-m/fpv5/softfp/libc_nano.a(lib_a-tzcalc_limits.o)
 .ARM.attributes
                0x0000000000000771       0x30 /home/andy/code/dbc/test/compilers/gcc-arm-none-eabi-7-2018-q2-update/bin/../lib/gcc/arm-none-eabi/7.3.1/../../../../arm-none-eabi/lib/thumb/v7e-m/fpv5/softfp/libc_nano.a(lib_a-tzlock.o)
 .ARM.attributes
                0x00000000000007a1       0x30 /home/andy/code/dbc/test/compilers/gcc-arm-none-eabi-7-2018-q2-update/bin/../lib/gcc/arm-none-eabi/7.3.1/../../../../arm-none-eabi/lib/thumb/v7e-m/fpv5/softfp/libc_nano.a(lib_a-tzset.o)
 .ARM.attributes
                0x00000000000007d1       0x30 /home/andy/code/dbc/test/compilers/gcc-arm-none-eabi-7-2018-q2-update/bin/../lib/gcc/arm-none-eabi/7.3.1/../../../../arm-none-eabi/lib/thumb/v7e-m/fpv5/softfp/libc_nano.a(lib_a-tzset_r.o)
 .ARM.attributes
                0x0000000000000801       0x30 /home/andy/code/dbc/test/compilers/gcc-arm-none-eabi-7-2018-q2-update/bin/../lib/gcc/arm-none-eabi/7.3.1/../../../../arm-none-eabi/lib/thumb/v7e-m/fpv5/softfp/libc_nano.a(lib_a-tzvars.o)
 .ARM.attributes
                0x0000000000000831       0x30 /home/andy/code/dbc/test/compilers/gcc-arm-none-eabi-7-2018-q2-update/bin/../lib/gcc/arm-none-eabi/7.3.1/../../../../arm-none-eabi/lib/thumb/v7e-m/fpv5/softfp/libc_nano.a(lib_a-writer.o)
 .ARM.attributes
                0x0000000000000861       0x30 /home/andy/code/dbc/test/compilers/gcc-arm-none-eabi-7-2018-q2-update/bin/../lib/gcc/arm-none-eabi/7.3.1/../../../../arm-none-eabi/lib/thumb/v7e-m/fpv5/softfp/libc_nano.a(lib_a-closer.o)
 .ARM.attributes
                0x0000000000000891       0x30 /home/andy/code/dbc/test/compilers/gcc-arm-none-eabi-7-2018-q2-update/bin/../lib/gcc/arm-none-eabi/7.3.1/../../../../arm-none-eabi/lib/thumb/v7e-m/fpv5/softfp/libc_nano.a(lib_a-flags.o)
 .ARM.attributes
                0x00000000000008c1       0x30 /home/andy/code/dbc/test/compilers/gcc-arm-none-eabi-7-2018-q2-update/bin/../lib/gcc/arm-none-eabi/7.3.1/../../../../arm-none-eabi/lib/thumb/v7e-m/fpv5/softfp/libc_nano.a(lib_a-fstatr.o)
 .ARM.attributes
                0x00000000000008f1       0x30 /home/andy/code/dbc/test/compilers/gcc-arm-none-eabi-7-2018-q2-update/bin/../lib/gcc/arm-none-eabi/7.3.1/../../../../arm-none-eabi/lib/thumb/v7e-m/fpv5/softfp/libc_nano.a(lib_a-getenv_r.o)
 .ARM.attributes
                0x0000000000000921       0x30 /home/andy/code/dbc/test/compilers/gcc-arm-none-eabi-7-2018-q2-update/bin/../lib/gcc/arm-none-eabi/7.3.1/../../../../arm-none-eabi/lib/thumb/v7e-m/fpv5/softfp/libc_nano.a(lib_a-gettzinfo.o)
 .ARM.attributes
                0x0000000000000951       0x30 /home/andy/code/dbc/test/compilers/gcc-arm-none-eabi-7-2018-q2-update/bin/../lib/gcc/arm-none-eabi/7.3.1/../../../../arm-none-eabi/lib/thumb/v7e-m/fpv5/softfp/libc_nano.a(lib_a-gmtime_r.o)
 .ARM.attributes
                0x0000000000000981       0x30 /home/andy/code/dbc/test/compilers/gcc-arm-none-eabi-7-2018-q2-update/bin/../lib/gcc/arm-none-eabi/7.3.1/../../../../arm-none-eabi/lib/thumb/v7e-m/fpv5/softfp/libc_nano.a(lib_a-isattyr.o)
 .ARM.attributes
                0x00000000000009b1       0x30 /home/andy/code/dbc/test/compilers/gcc-arm-none-eabi-7-2018-q2-update/bin/../lib/gcc/arm-none-eabi/7.3.1/../../../../arm-none-eabi/lib/thumb/v7e-m/fpv5/softfp/libc_nano.a(lib_a-lseekr.o)
 .ARM.attributes
                0x00000000000009e1       0x30 /home/andy/code/dbc/test/compilers/gcc-arm-none-eabi-7-2018-q2-update/bin/../lib/gcc/arm-none-eabi/7.3.1/../../../../arm-none-eabi/lib/thumb/v7e-m/fpv5/softfp/libc_nano.a(lib_a-nano-msizer.o)
 .ARM.attributes
                0x0000000000000a11       0x30 /home/andy/code/dbc/test/compilers/gcc-arm-none-eabi-7-2018-q2-update/bin/../lib/gcc/arm-none-eabi/7.3.1/../../../../arm-none-eabi/lib/thumb/v7e-m/fpv5/softfp/libc_nano.a(lib_a-readr.o)
 .ARM.attributes
                0x0000000000000a41       0x30 /home/andy/code/dbc/test/compilers/gcc-arm-none-eabi-7-2018-q2-update/bin/../lib/gcc/arm-none-eabi/7.3.1/../../../../arm-none-eabi/lib/thumb/v7e-m/fpv5/softfp/libc_nano.a(lib_a-sscanf.o)
 .ARM.attributes
                0x0000000000000a71       0x1e /home/andy/code/dbc/test/compilers/gcc-arm-none-eabi-7-2018-q2-update/bin/../lib/gcc/arm-none-eabi/7.3.1/../../../../arm-none-eabi/lib/thumb/v7e-m/fpv5/softfp/libc_nano.a(lib_a-strcmp.o)
 .ARM.attributes
                0x0000000000000a8f       0x30 /home/andy/code/dbc/test/compilers/gcc-arm-none-eabi-7-2018-q2-update/bin/../lib/gcc/arm-none-eabi/7.3.1/../../../../arm-none-eabi/lib/thumb/v7e-m/fpv5/softfp/libc_nano.a(lib_a-strcpy.o)
 .ARM.attributes
                0x0000000000000abf       0x19 /home/andy/code/dbc/test/compilers/gcc-arm-none-eabi-7-2018-q2-update/bin/../lib/gcc/arm-none-eabi/7.3.1/../../../../arm-none-eabi/lib/thumb/v7e-m/fpv5/softfp/libc_nano.a(lib_a-strlen.o)
 .ARM.attributes
                0x0000000000000ad8       0x30 /home/andy/code/dbc/test/compilers/gcc-arm-none-eabi-7-2018-q2-update/bin/../lib/gcc/arm-none-eabi/7.3.1/../../../../arm-none-eabi/lib/thumb/v7e-m/fpv5/softfp/libc_nano.a(lib_a-strncmp.o)
 .ARM.attributes
                0x0000000000000b08       0x30 /home/andy/code/dbc/test/compilers/gcc-arm-none-eabi-7-2018-q2-update/bin/../lib/gcc/arm-none-eabi/7.3.1/../../../../arm-none-eabi/lib/thumb/v7e-m/fpv5/softfp/libc_nano.a(lib_a-strtoul.o)
 .ARM.attributes
                0x0000000000000b38       0x30 /home/andy/code/dbc/test/compilers/gcc-arm-none-eabi-7-2018-q2-update/bin/../lib/gcc/arm-none-eabi/7.3.1/../../../../arm-none-eabi/lib/thumb/v7e-m/fpv5/softfp/libc_nano.a(lib_a-environ.o)
 .ARM.attributes
                0x0000000000000b68       0x30 /home/andy/code/dbc/test/compilers/gcc-arm-none-eabi-7-2018-q2-update/bin/../lib/gcc/arm-none-eabi/7.3.1/../../../../arm-none-eabi/lib/thumb/v7e-m/fpv5/softfp/libc_nano.a(lib_a-locale.o)
 .ARM.attributes
                0x0000000000000b98       0x30 /home/andy/code/dbc/test/compilers/gcc-arm-none-eabi-7-2018-q2-update/bin/../lib/gcc/arm-none-eabi/7.3.1/../../../../arm-none-eabi/lib/thumb/v7e-m/fpv5/softfp/libc_nano.a(lib_a-mbtowc_r.o)
 .ARM.attributes
                0x0000000000000bc8       0x30 /home/andy/code/dbc/test/compilers/gcc-arm-none-eabi-7-2018-q2-update/bin/../lib/gcc/arm-none-eabi/7.3.1/../../../../arm-none-eabi/lib/thumb/v7e-m/fpv5/softfp/libc_nano.a(lib_a-nano-svfscanf.o)
 .ARM.attributes
                0x0000000000000bf8       0x30 /home/andy/code/dbc/test/compilers/gcc-arm-none-eabi-7-2018-q2-update/bin/../lib/gcc/arm-none-eabi/7.3.1/../../../../arm-none-eabi/lib/thumb/v7e-m/fpv5/softfp/libc_nano.a(lib_a-nano-vfscanf_i.o)
 .ARM.attributes
                0x0000000000000c28       0x30 /home/andy/code/dbc/test/compilers/gcc-arm-none-eabi-7-2018-q2-update/bin/../lib/gcc/arm-none-eabi/7.3.1/../../../../arm-none-eabi/lib/thumb/v7e-m/fpv5/softfp/libc_nano.a(lib_a-sccl.o)
 .ARM.attributes
                0x0000000000000c58       0x30 /home/andy/code/dbc/test/compilers/gcc-arm-none-eabi-7-2018-q2-update/bin/../lib/gcc/arm-none-eabi/7.3.1/../../../../arm-none-eabi/lib/thumb/v7e-m/fpv5/softfp/libc_nano.a(lib_a-strtol.o)
 .ARM.attributes
                0x0000000000000c88       0x30 /home/andy/code/dbc/test/compilers/gcc-arm-none-eabi-7-2018-q2-update/bin/../lib/gcc/arm-none-eabi/7.3.1/../../../../arm-none-eabi/lib/thumb/v7e-m/fpv5/softfp/libc_nano.a(lib_a-ungetc.o)
 .ARM.attributes
                0x0000000000000cb8       0x30 /home/andy/code/dbc/test/compilers/gcc-arm-none-eabi-7-2018-q2-update/bin/../lib/gcc/arm-none-eabi/7.3.1/../../../../arm-none-eabi/lib/thumb/v7e-m/fpv5/softfp/libc_nano.a(lib_a-wctomb_r.o)
 .ARM.attributes
                0x0000000000000ce8       0x30 /home/andy/code/dbc/test/compilers/gcc-arm-none-eabi-7-2018-q2-update/bin/../lib/gcc/arm-none-eabi/7.3.1/../../../../arm-none-eabi/lib/thumb/v7e-m/fpv5/softfp/libc_nano.a(lib_a-ctype_.o)
 .ARM.attributes
                0x0000000000000d18       0x20 /home/andy/code/dbc/test/compilers/gcc-arm-none-eabi-7-2018-q2-update/bin/../lib/gcc/arm-none-eabi/7.3.1/thumb/v7e-m/fpv5/softfp/libgcc.a(_aeabi_ldivmod.o)
 .ARM.attributes
                0x0000000000000d38       0x30 /home/andy/code/dbc/test/compilers/gcc-arm-none-eabi-7-2018-q2-update/bin/../lib/gcc/arm-none-eabi/7.3.1/thumb/v7e-m/fpv5/softfp/libgcc.a(_udivmoddi4.o)
 .ARM.attributes
                0x0000000000000d68       0x20 /home/andy/code/dbc/test/compilers/gcc-arm-none-eabi-7-2018-q2-update/bin/../lib/gcc/arm-none-eabi/7.3.1/thumb/v7e-m/fpv5/softfp/libgcc.a(_dvmd_tls.o)
 .ARM.attributes
                0x0000000000000d88       0x30 /home/andy/code/dbc/test/compilers/gcc-arm-none-eabi-7-2018-q2-update/bin/../lib/gcc/arm-none-eabi/7.3.1/thumb/v7e-m/fpv5/softfp/crtend.o
 .ARM.attributes
                0x0000000000000db8       0x20 /home/andy/code/dbc/test/compilers/gcc-arm-none-eabi-7-2018-q2-update/bin/../lib/gcc/arm-none-eabi/7.3.1/thumb/v7e-m/fpv5/softfp/crtn.o
 .ARM.attributes
                0x0000000000000dd8       0x30 /home/andy/code/dbc/test/compilers/gcc-arm-none-eabi-7-2018-q2-update/bin/../lib/gcc/arm-none-eabi/7.3.1/../../../../arm-none-eabi/lib/thumb/v7e-m/fpv5/softfp/libc_nano.a(lib_a-calloc.o)
 .ARM.attributes
                0x0000000000000e08       0x30 /home/andy/code/dbc/test/compilers/gcc-arm-none-eabi-7-2018-q2-update/bin/../lib/gcc/arm-none-eabi/7.3.1/../../../../arm-none-eabi/lib/thumb/v7e-m/fpv5/softfp/libc_nano.a(lib_a-fputc.o)
 .ARM.attributes
                0x0000000000000e38       0x30 /home/andy/code/dbc/test/compilers/gcc-arm-none-eabi-7-2018-q2-update/bin/../lib/gcc/arm-none-eabi/7.3.1/../../../../arm-none-eabi/lib/thumb/v7e-m/fpv5/softfp/libc_nano.a(lib_a-fwrite.o)
 .ARM.attributes
                0x0000000000000e68       0x30 /home/andy/code/dbc/test/compilers/gcc-arm-none-eabi-7-2018-q2-update/bin/../lib/gcc/arm-none-eabi/7.3.1/../../../../arm-none-eabi/lib/thumb/v7e-m/fpv5/softfp/libc_nano.a(lib_a-memcmp.o)
 .ARM.attributes
                0x0000000000000e98       0x30 /home/andy/code/dbc/test/compilers/gcc-arm-none-eabi-7-2018-q2-update/bin/../lib/gcc/arm-none-eabi/7.3.1/../../../../arm-none-eabi/lib/thumb/v7e-m/fpv5/softfp/libc_nano.a(lib_a-putc.o)
 .ARM.attributes
                0x0000000000000ec8       0x30 /home/andy/code/dbc/test/compilers/gcc-arm-none-eabi-7-2018-q2-update/bin/../lib/gcc/arm-none-eabi/7.3.1/../../../../arm-none-eabi/lib/thumb/v7e-m/fpv5/softfp/libc_nano.a(lib_a-puts.o)
 .ARM.attributes
                0x0000000000000ef8       0x30 /home/andy/code/dbc/test/compilers/gcc-arm-none-eabi-7-2018-q2-update/bin/../lib/gcc/arm-none-eabi/7.3.1/../../../../arm-none-eabi/lib/thumb/v7e-m/fpv5/softfp/libc_nano.a(lib_a-strchr.o)
 .ARM.attributes
                0x0000000000000f28       0x30 /home/andy/code/dbc/test/compilers/gcc-arm-none-eabi-7-2018-q2-update/bin/../lib/gcc/arm-none-eabi/7.3.1/../../../../arm-none-eabi/lib/thumb/v7e-m/fpv5/softfp/libc_nano.a(lib_a-strcspn.o)
 .ARM.attributes
                0x0000000000000f58       0x30 /home/andy/code/dbc/test/compilers/gcc-arm-none-eabi-7-2018-q2-update/bin/../lib/gcc/arm-none-eabi/7.3.1/../../../../arm-none-eabi/lib/thumb/v7e-m/fpv5/softfp/libc_nano.a(lib_a-strncpy.o)
 .ARM.attributes
                0x0000000000000f88       0x30 /home/andy/code/dbc/test/compilers/gcc-arm-none-eabi-7-2018-q2-update/bin/../lib/gcc/arm-none-eabi/7.3.1/../../../../arm-none-eabi/lib/thumb/v7e-m/fpv5/softfp/libc_nano.a(lib_a-strspn.o)
 .ARM.attributes
                0x0000000000000fb8       0x30 /home/andy/code/dbc/test/compilers/gcc-arm-none-eabi-7-2018-q2-update/bin/../lib/gcc/arm-none-eabi/7.3.1/../../../../arm-none-eabi/lib/thumb/v7e-m/fpv5/softfp/libc_nano.a(lib_a-wbuf.o)
 .ARM.attributes
                0x0000000000000fe8       0x30 /home/andy/code/dbc/test/compilers/gcc-arm-none-eabi-7-2018-q2-update/bin/../lib/gcc/arm-none-eabi/7.3.1/../../../../arm-none-eabi/lib/thumb/v7e-m/fpv5/softfp/libc_nano.a(lib_a-wsetup.o)
 .ARM.attributes
                0x0000000000001018       0x20 /home/andy/code/dbc/test/compilers/gcc-arm-none-eabi-7-2018-q2-update/bin/../lib/gcc/arm-none-eabi/7.3.1/thumb/v7e-m/fpv5/softfp/libgcc.a(_aeabi_uldivmod.o)
 .ARM.attributes
                0x0000000000001038       0x30 /home/andy/code/dbc/test/compilers/gcc-arm-none-eabi-7-2018-q2-update/bin/../lib/gcc/arm-none-eabi/7.3.1/thumb/v7e-m/fpv5/softfp/libgcc.a(_popcountsi2.o)

.comment        0x0000000000000000       0x7f
 .comment       0x0000000000000000       0x7f /tmp/ccPT7ssV.ltrans0.ltrans.o
                                         0x80 (size before relaxing)
 .comment       0x000000000000007f       0x80 /tmp/ccPT7ssV.ltrans1.ltrans.o
 .comment       0x000000000000007f       0x80 /tmp/ccPT7ssV.ltrans2.ltrans.o
 .comment       0x000000000000007f       0x80 /tmp/ccPT7ssV.ltrans3.ltrans.o
 .comment       0x000000000000007f       0x80 /tmp/ccPT7ssV.ltrans4.ltrans.o

.debug_line     0x0000000000000000    0x109f9
 .debug_line    0x0000000000000000       0xd9 BUILD/GIGA/GCC_ARM-CUSTOM/mbed-os/cmsis/CMSIS_5/CMSIS/RTOS2/RTX/Source/TOOLCHAIN_GCC/TARGET_RTOS_M4_M7/irq_cm4f.o
 .debug_line    0x00000000000000d9       0xdc BUILD/GIGA/GCC_ARM-CUSTOM/mbed-os/targets/TARGET_STM/TARGET_STM32H7/TARGET_STM32H747xI/TARGET_STM32H747xI_CM7/TOOLCHAIN_GCC_ARM/startup_stm32h747xx.o
 .debug_line    0x00000000000001b5     0x4c4e /tmp/ccPT7ssV.ltrans0.ltrans.o
 .debug_line    0x0000000000004e03     0x3cdf /tmp/ccPT7ssV.ltrans1.ltrans.o
 .debug_line    0x0000000000008ae2     0x2c20 /tmp/ccPT7ssV.ltrans2.ltrans.o
 .debug_line    0x000000000000b702     0x322e /tmp/ccPT7ssV.ltrans3.ltrans.o
 .debug_line    0x000000000000e930     0x20c9 /tmp/ccPT7ssV.ltrans4.ltrans.o

.debug_info     0x0000000000000000    0x69b3d
 .debug_info    0x0000000000000000       0x26 BUILD/GIGA/GCC_ARM-CUSTOM/mbed-os/cmsis/CMSIS_5/CMSIS/RTOS2/RTX/Source/TOOLCHAIN_GCC/TARGET_RTOS_M4_M7/irq_cm4f.o
 .debug_info    0x0000000000000026       0x22 BUILD/GIGA/GCC_ARM-CUSTOM/mbed-os/targets/TARGET_STM/TARGET_STM32H7/TARGET_STM32H747xI/TARGET_STM32H747xI_CM7/TOOLCHAIN_GCC_ARM/startup_stm32h747xx.o
 .debug_info    0x0000000000000048    0x1cc67 /tmp/ccPT7ssV.ltrans0.ltrans.o
 .debug_info    0x000000000001ccaf    0x18f61 /tmp/ccPT7ssV.ltrans1.ltrans.o
 .debug_info    0x0000000000035c10     0xf818 /tmp/ccPT7ssV.ltrans2.ltrans.o
 .debug_info    0x0000000000045428    0x15dfd /tmp/ccPT7ssV.ltrans3.ltrans.o
 .debug_info    0x000000000005b225     0xe918 /tmp/ccPT7ssV.ltrans4.ltrans.o

.debug_abbrev   0x0000000000000000     0x50ed
 .debug_abbrev  0x0000000000000000       0x14 BUILD/GIGA/GCC_ARM-CUSTOM/mbed-os/cmsis/CMSIS_5/CMSIS/RTOS2/RTX/Source/TOOLCHAIN_GCC/TARGET_RTOS_M4_M7/irq_cm4f.o
 .debug_abbrev  0x0000000000000014       0x12 BUILD/GIGA/GCC_ARM-CUSTOM/mbed-os/targets/TARGET_STM/TARGET_STM32H7/TARGET_STM32H747xI/TARGET_STM32H747xI_CM7/TOOLCHAIN_GCC_ARM/startup_stm32h747xx.o
 .debug_abbrev  0x0000000000000026     0x1339 /tmp/ccPT7ssV.ltrans0.ltrans.o
 .debug_abbrev  0x000000000000135f      0xe81 /tmp/ccPT7ssV.ltrans1.ltrans.o
 .debug_abbrev  0x00000000000021e0      0xe8f /tmp/ccPT7ssV.ltrans2.ltrans.o
 .debug_abbrev  0x000000000000306f     0x1314 /tmp/ccPT7ssV.ltrans3.ltrans.o
 .debug_abbrev  0x0000000000004383      0xd6a /tmp/ccPT7ssV.ltrans4.ltrans.o

.debug_aranges  0x0000000000000000     0x17e0
 .debug_aranges
                0x0000000000000000       0x20 BUILD/GIGA/GCC_ARM-CUSTOM/mbed-os/cmsis/CMSIS_5/CMSIS/RTOS2/RTX/Source/TOOLCHAIN_GCC/TARGET_RTOS_M4_M7/irq_cm4f.o
 .debug_aranges
                0x0000000000000020       0x28 BUILD/GIGA/GCC_ARM-CUSTOM/mbed-os/targets/TARGET_STM/TARGET_STM32H7/TARGET_STM32H747xI/TARGET_STM32H747xI_CM7/TOOLCHAIN_GCC_ARM/startup_stm32h747xx.o
 .debug_aranges
                0x0000000000000048      0x620 /tmp/ccPT7ssV.ltrans0.ltrans.o
 .debug_aranges
                0x0000000000000668      0x428 /tmp/ccPT7ssV.ltrans1.ltrans.o
 .debug_aranges
                0x0000000000000a90      0x548 /tmp/ccPT7ssV.ltrans2.ltrans.o
 .debug_aranges
                0x0000000000000fd8      0x578 /tmp/ccPT7ssV.ltrans3.ltrans.o
 .debug_aranges
                0x0000000000001550      0x290 /tmp/ccPT7ssV.ltrans4.ltrans.o

.debug_str      0x0000000000000000    0x14960
 .debug_str     0x0000000000000000       0xa2 BUILD/GIGA/GCC_ARM-CUSTOM/mbed-os/cmsis/CMSIS_5/CMSIS/RTOS2/RTX/Source/TOOLCHAIN_GCC/TARGET_RTOS_M4_M7/irq_cm4f.o
 .debug_str     0x00000000000000a2       0x7e BUILD/GIGA/GCC_ARM-CUSTOM/mbed-os/targets/TARGET_STM/TARGET_STM32H7/TARGET_STM32H747xI/TARGET_STM32H747xI_CM7/TOOLCHAIN_GCC_ARM/startup_stm32h747xx.o
                                         0xc6 (size before relaxing)
 .debug_str     0x0000000000000120     0x9b43 /tmp/ccPT7ssV.ltrans0.ltrans.o
                                       0xa8e1 (size before relaxing)
 .debug_str     0x0000000000009c63     0x4394 /tmp/ccPT7ssV.ltrans1.ltrans.o
                                       0x9b25 (size before relaxing)
 .debug_str     0x000000000000dff7     0x1bf6 /tmp/ccPT7ssV.ltrans2.ltrans.o
                                       0x3215 (size before relaxing)
 .debug_str     0x000000000000fbed     0x38d3 /tmp/ccPT7ssV.ltrans3.ltrans.o
                                       0x89f0 (size before relaxing)
 .debug_str     0x00000000000134c0     0x14a0 /tmp/ccPT7ssV.ltrans4.ltrans.o
                                       0x47d2 (size before relaxing)

.debug_ranges   0x0000000000000000     0x7948
 .debug_ranges  0x0000000000000000       0x20 BUILD/GIGA/GCC_ARM-CUSTOM/mbed-os/targets/TARGET_STM/TARGET_STM32H7/TARGET_STM32H747xI/TARGET_STM32H747xI_CM7/TOOLCHAIN_GCC_ARM/startup_stm32h747xx.o
 .debug_ranges  0x0000000000000020     0x2600 /tmp/ccPT7ssV.ltrans0.ltrans.o
 .debug_ranges  0x0000000000002620     0x1708 /tmp/ccPT7ssV.ltrans1.ltrans.o
 .debug_ranges  0x0000000000003d28     0x1460 /tmp/ccPT7ssV.ltrans2.ltrans.o
 .debug_ranges  0x0000000000005188     0x16c8 /tmp/ccPT7ssV.ltrans3.ltrans.o
 .debug_ranges  0x0000000000006850     0x10f8 /tmp/ccPT7ssV.ltrans4.ltrans.o

.debug_loc      0x0000000000000000    0x30bbd
 .debug_loc     0x0000000000000000     0xc36f /tmp/ccPT7ssV.ltrans0.ltrans.o
 .debug_loc     0x000000000000c36f     0xb935 /tmp/ccPT7ssV.ltrans1.ltrans.o
 .debug_loc     0x0000000000017ca4     0x9a14 /tmp/ccPT7ssV.ltrans2.ltrans.o
 .debug_loc     0x00000000000216b8     0x8679 /tmp/ccPT7ssV.ltrans3.ltrans.o
 .debug_loc     0x0000000000029d31     0x6e8c /tmp/ccPT7ssV.ltrans4.ltrans.o

.debug_frame    0x0000000000000000     0x6850
 .debug_frame   0x0000000000000000     0x1424 /tmp/ccPT7ssV.ltrans0.ltrans.o
 .debug_frame   0x0000000000001424      0xf84 /tmp/ccPT7ssV.ltrans1.ltrans.o
 .debug_frame   0x00000000000023a8     0x1520 /tmp/ccPT7ssV.ltrans2.ltrans.o
 .debug_frame   0x00000000000038c8     0x135c /tmp/ccPT7ssV.ltrans3.ltrans.o
 .debug_frame   0x0000000000004c24      0xa6c /tmp/ccPT7ssV.ltrans4.ltrans.o
 .debug_frame   0x0000000000005690       0x20 /home/andy/code/dbc/test/compilers/gcc-arm-none-eabi-7-2018-q2-update/bin/../lib/gcc/arm-none-eabi/7.3.1/../../../../arm-none-eabi/lib/thumb/v7e-m/fpv5/softfp/libc_nano.a(lib_a-errno.o)
 .debug_frame   0x00000000000056b0       0x3c /home/andy/code/dbc/test/compilers/gcc-arm-none-eabi-7-2018-q2-update/bin/../lib/gcc/arm-none-eabi/7.3.1/../../../../arm-none-eabi/lib/thumb/v7e-m/fpv5/softfp/libc_nano.a(lib_a-fclose.o)
 .debug_frame   0x00000000000056ec       0x68 /home/andy/code/dbc/test/compilers/gcc-arm-none-eabi-7-2018-q2-update/bin/../lib/gcc/arm-none-eabi/7.3.1/../../../../arm-none-eabi/lib/thumb/v7e-m/fpv5/softfp/libc_nano.a(lib_a-fflush.o)
 .debug_frame   0x0000000000005754      0x11c /home/andy/code/dbc/test/compilers/gcc-arm-none-eabi-7-2018-q2-update/bin/../lib/gcc/arm-none-eabi/7.3.1/../../../../arm-none-eabi/lib/thumb/v7e-m/fpv5/softfp/libc_nano.a(lib_a-findfp.o)
 .debug_frame   0x0000000000005870       0x44 /home/andy/code/dbc/test/compilers/gcc-arm-none-eabi-7-2018-q2-update/bin/../lib/gcc/arm-none-eabi/7.3.1/../../../../arm-none-eabi/lib/thumb/v7e-m/fpv5/softfp/libc_nano.a(lib_a-fopen.o)
 .debug_frame   0x00000000000058b4       0x50 /home/andy/code/dbc/test/compilers/gcc-arm-none-eabi-7-2018-q2-update/bin/../lib/gcc/arm-none-eabi/7.3.1/../../../../arm-none-eabi/lib/thumb/v7e-m/fpv5/softfp/libc_nano.a(lib_a-fread.o)
 .debug_frame   0x0000000000005904       0x30 /home/andy/code/dbc/test/compilers/gcc-arm-none-eabi-7-2018-q2-update/bin/../lib/gcc/arm-none-eabi/7.3.1/../../../../arm-none-eabi/lib/thumb/v7e-m/fpv5/softfp/libc_nano.a(lib_a-fseek.o)
 .debug_frame   0x0000000000005934       0x44 /home/andy/code/dbc/test/compilers/gcc-arm-none-eabi-7-2018-q2-update/bin/../lib/gcc/arm-none-eabi/7.3.1/../../../../arm-none-eabi/lib/thumb/v7e-m/fpv5/softfp/libc_nano.a(lib_a-fseeko.o)
 .debug_frame   0x0000000000005978       0x30 /home/andy/code/dbc/test/compilers/gcc-arm-none-eabi-7-2018-q2-update/bin/../lib/gcc/arm-none-eabi/7.3.1/../../../../arm-none-eabi/lib/thumb/v7e-m/fpv5/softfp/libc_nano.a(lib_a-ftell.o)
 .debug_frame   0x00000000000059a8       0x3c /home/andy/code/dbc/test/compilers/gcc-arm-none-eabi-7-2018-q2-update/bin/../lib/gcc/arm-none-eabi/7.3.1/../../../../arm-none-eabi/lib/thumb/v7e-m/fpv5/softfp/libc_nano.a(lib_a-ftello.o)
 .debug_frame   0x00000000000059e4       0x54 /home/andy/code/dbc/test/compilers/gcc-arm-none-eabi-7-2018-q2-update/bin/../lib/gcc/arm-none-eabi/7.3.1/../../../../arm-none-eabi/lib/thumb/v7e-m/fpv5/softfp/libc_nano.a(lib_a-fwalk.o)
 .debug_frame   0x0000000000005a38       0x2c /home/andy/code/dbc/test/compilers/gcc-arm-none-eabi-7-2018-q2-update/bin/../lib/gcc/arm-none-eabi/7.3.1/../../../../arm-none-eabi/lib/thumb/v7e-m/fpv5/softfp/libc_nano.a(lib_a-init.o)
 .debug_frame   0x0000000000005a64       0x34 /home/andy/code/dbc/test/compilers/gcc-arm-none-eabi-7-2018-q2-update/bin/../lib/gcc/arm-none-eabi/7.3.1/../../../../arm-none-eabi/lib/thumb/v7e-m/fpv5/softfp/libc_nano.a(lib_a-lcltime.o)
 .debug_frame   0x0000000000005a98       0x30 /home/andy/code/dbc/test/compilers/gcc-arm-none-eabi-7-2018-q2-update/bin/../lib/gcc/arm-none-eabi/7.3.1/../../../../arm-none-eabi/lib/thumb/v7e-m/fpv5/softfp/libc_nano.a(lib_a-lcltime_r.o)
 .debug_frame   0x0000000000005ac8       0x58 /home/andy/code/dbc/test/compilers/gcc-arm-none-eabi-7-2018-q2-update/bin/../lib/gcc/arm-none-eabi/7.3.1/../../../../arm-none-eabi/lib/thumb/v7e-m/fpv5/softfp/libc_nano.a(lib_a-makebuf.o)
 .debug_frame   0x0000000000005b20       0x30 /home/andy/code/dbc/test/compilers/gcc-arm-none-eabi-7-2018-q2-update/bin/../lib/gcc/arm-none-eabi/7.3.1/../../../../arm-none-eabi/lib/thumb/v7e-m/fpv5/softfp/libc_nano.a(lib_a-malloc.o)
 .debug_frame   0x0000000000005b50       0x28 /home/andy/code/dbc/test/compilers/gcc-arm-none-eabi-7-2018-q2-update/bin/../lib/gcc/arm-none-eabi/7.3.1/../../../../arm-none-eabi/lib/thumb/v7e-m/fpv5/softfp/libc_nano.a(lib_a-memcpy-stub.o)
 .debug_frame   0x0000000000005b78       0x20 /home/andy/code/dbc/test/compilers/gcc-arm-none-eabi-7-2018-q2-update/bin/../lib/gcc/arm-none-eabi/7.3.1/../../../../arm-none-eabi/lib/thumb/v7e-m/fpv5/softfp/libc_nano.a(lib_a-memset.o)
 .debug_frame   0x0000000000005b98       0x2c /home/andy/code/dbc/test/compilers/gcc-arm-none-eabi-7-2018-q2-update/bin/../lib/gcc/arm-none-eabi/7.3.1/../../../../arm-none-eabi/lib/thumb/v7e-m/fpv5/softfp/libc_nano.a(lib_a-nano-callocr.o)
 .debug_frame   0x0000000000005bc4       0x38 /home/andy/code/dbc/test/compilers/gcc-arm-none-eabi-7-2018-q2-update/bin/../lib/gcc/arm-none-eabi/7.3.1/../../../../arm-none-eabi/lib/thumb/v7e-m/fpv5/softfp/libc_nano.a(lib_a-nano-freer.o)
 .debug_frame   0x0000000000005bfc       0x2c /home/andy/code/dbc/test/compilers/gcc-arm-none-eabi-7-2018-q2-update/bin/../lib/gcc/arm-none-eabi/7.3.1/../../../../arm-none-eabi/lib/thumb/v7e-m/fpv5/softfp/libc_nano.a(lib_a-nano-mallocr.o)
 .debug_frame   0x0000000000005c28       0x3c /home/andy/code/dbc/test/compilers/gcc-arm-none-eabi-7-2018-q2-update/bin/../lib/gcc/arm-none-eabi/7.3.1/../../../../arm-none-eabi/lib/thumb/v7e-m/fpv5/softfp/libc_nano.a(lib_a-nano-reallocr.o)
 .debug_frame   0x0000000000005c64       0x2c /home/andy/code/dbc/test/compilers/gcc-arm-none-eabi-7-2018-q2-update/bin/../lib/gcc/arm-none-eabi/7.3.1/../../../../arm-none-eabi/lib/thumb/v7e-m/fpv5/softfp/libc_nano.a(lib_a-openr.o)
 .debug_frame   0x0000000000005c90       0x5c /home/andy/code/dbc/test/compilers/gcc-arm-none-eabi-7-2018-q2-update/bin/../lib/gcc/arm-none-eabi/7.3.1/../../../../arm-none-eabi/lib/thumb/v7e-m/fpv5/softfp/libc_nano.a(lib_a-reent.o)
 .debug_frame   0x0000000000005cec       0x40 /home/andy/code/dbc/test/compilers/gcc-arm-none-eabi-7-2018-q2-update/bin/../lib/gcc/arm-none-eabi/7.3.1/../../../../arm-none-eabi/lib/thumb/v7e-m/fpv5/softfp/libc_nano.a(lib_a-refill.o)
 .debug_frame   0x0000000000005d2c       0x2c /home/andy/code/dbc/test/compilers/gcc-arm-none-eabi-7-2018-q2-update/bin/../lib/gcc/arm-none-eabi/7.3.1/../../../../arm-none-eabi/lib/thumb/v7e-m/fpv5/softfp/libc_nano.a(lib_a-sbrkr.o)
 .debug_frame   0x0000000000005d58       0x88 /home/andy/code/dbc/test/compilers/gcc-arm-none-eabi-7-2018-q2-update/bin/../lib/gcc/arm-none-eabi/7.3.1/../../../../arm-none-eabi/lib/thumb/v7e-m/fpv5/softfp/libc_nano.a(lib_a-stdio.o)
 .debug_frame   0x0000000000005de0       0x3c /home/andy/code/dbc/test/compilers/gcc-arm-none-eabi-7-2018-q2-update/bin/../lib/gcc/arm-none-eabi/7.3.1/../../../../arm-none-eabi/lib/thumb/v7e-m/fpv5/softfp/libc_nano.a(lib_a-tzcalc_limits.o)
 .debug_frame   0x0000000000005e1c       0x30 /home/andy/code/dbc/test/compilers/gcc-arm-none-eabi-7-2018-q2-update/bin/../lib/gcc/arm-none-eabi/7.3.1/../../../../arm-none-eabi/lib/thumb/v7e-m/fpv5/softfp/libc_nano.a(lib_a-tzlock.o)
 .debug_frame   0x0000000000005e4c       0x3c /home/andy/code/dbc/test/compilers/gcc-arm-none-eabi-7-2018-q2-update/bin/../lib/gcc/arm-none-eabi/7.3.1/../../../../arm-none-eabi/lib/thumb/v7e-m/fpv5/softfp/libc_nano.a(lib_a-tzset.o)
 .debug_frame   0x0000000000005e88       0x5c /home/andy/code/dbc/test/compilers/gcc-arm-none-eabi-7-2018-q2-update/bin/../lib/gcc/arm-none-eabi/7.3.1/../../../../arm-none-eabi/lib/thumb/v7e-m/fpv5/softfp/libc_nano.a(lib_a-tzset_r.o)
 .debug_frame   0x0000000000005ee4       0x2c /home/andy/code/dbc/test/compilers/gcc-arm-none-eabi-7-2018-q2-update/bin/../lib/gcc/arm-none-eabi/7.3.1/../../../../arm-none-eabi/lib/thumb/v7e-m/fpv5/softfp/libc_nano.a(lib_a-writer.o)
 .debug_frame   0x0000000000005f10       0x2c /home/andy/code/dbc/test/compilers/gcc-arm-none-eabi-7-2018-q2-update/bin/../lib/gcc/arm-none-eabi/7.3.1/../../../../arm-none-eabi/lib/thumb/v7e-m/fpv5/softfp/libc_nano.a(lib_a-closer.o)
 .debug_frame   0x0000000000005f3c       0x2c /home/andy/code/dbc/test/compilers/gcc-arm-none-eabi-7-2018-q2-update/bin/../lib/gcc/arm-none-eabi/7.3.1/../../../../arm-none-eabi/lib/thumb/v7e-m/fpv5/softfp/libc_nano.a(lib_a-flags.o)
 .debug_frame   0x0000000000005f68       0x2c /home/andy/code/dbc/test/compilers/gcc-arm-none-eabi-7-2018-q2-update/bin/../lib/gcc/arm-none-eabi/7.3.1/../../../../arm-none-eabi/lib/thumb/v7e-m/fpv5/softfp/libc_nano.a(lib_a-fstatr.o)
 .debug_frame   0x0000000000005f94       0x50 /home/andy/code/dbc/test/compilers/gcc-arm-none-eabi-7-2018-q2-update/bin/../lib/gcc/arm-none-eabi/7.3.1/../../../../arm-none-eabi/lib/thumb/v7e-m/fpv5/softfp/libc_nano.a(lib_a-getenv_r.o)
 .debug_frame   0x0000000000005fe4       0x20 /home/andy/code/dbc/test/compilers/gcc-arm-none-eabi-7-2018-q2-update/bin/../lib/gcc/arm-none-eabi/7.3.1/../../../../arm-none-eabi/lib/thumb/v7e-m/fpv5/softfp/libc_nano.a(lib_a-gettzinfo.o)
 .debug_frame   0x0000000000006004       0x34 /home/andy/code/dbc/test/compilers/gcc-arm-none-eabi-7-2018-q2-update/bin/../lib/gcc/arm-none-eabi/7.3.1/../../../../arm-none-eabi/lib/thumb/v7e-m/fpv5/softfp/libc_nano.a(lib_a-gmtime_r.o)
 .debug_frame   0x0000000000006038       0x2c /home/andy/code/dbc/test/compilers/gcc-arm-none-eabi-7-2018-q2-update/bin/../lib/gcc/arm-none-eabi/7.3.1/../../../../arm-none-eabi/lib/thumb/v7e-m/fpv5/softfp/libc_nano.a(lib_a-isattyr.o)
 .debug_frame   0x0000000000006064       0x2c /home/andy/code/dbc/test/compilers/gcc-arm-none-eabi-7-2018-q2-update/bin/../lib/gcc/arm-none-eabi/7.3.1/../../../../arm-none-eabi/lib/thumb/v7e-m/fpv5/softfp/libc_nano.a(lib_a-lseekr.o)
 .debug_frame   0x0000000000006090       0x20 /home/andy/code/dbc/test/compilers/gcc-arm-none-eabi-7-2018-q2-update/bin/../lib/gcc/arm-none-eabi/7.3.1/../../../../arm-none-eabi/lib/thumb/v7e-m/fpv5/softfp/libc_nano.a(lib_a-nano-msizer.o)
 .debug_frame   0x00000000000060b0       0x2c /home/andy/code/dbc/test/compilers/gcc-arm-none-eabi-7-2018-q2-update/bin/../lib/gcc/arm-none-eabi/7.3.1/../../../../arm-none-eabi/lib/thumb/v7e-m/fpv5/softfp/libc_nano.a(lib_a-readr.o)
 .debug_frame   0x00000000000060dc       0x80 /home/andy/code/dbc/test/compilers/gcc-arm-none-eabi-7-2018-q2-update/bin/../lib/gcc/arm-none-eabi/7.3.1/../../../../arm-none-eabi/lib/thumb/v7e-m/fpv5/softfp/libc_nano.a(lib_a-sscanf.o)
 .debug_frame   0x000000000000615c       0x20 /home/andy/code/dbc/test/compilers/gcc-arm-none-eabi-7-2018-q2-update/bin/../lib/gcc/arm-none-eabi/7.3.1/../../../../arm-none-eabi/lib/thumb/v7e-m/fpv5/softfp/libc_nano.a(lib_a-strcmp.o)
 .debug_frame   0x000000000000617c       0x20 /home/andy/code/dbc/test/compilers/gcc-arm-none-eabi-7-2018-q2-update/bin/../lib/gcc/arm-none-eabi/7.3.1/../../../../arm-none-eabi/lib/thumb/v7e-m/fpv5/softfp/libc_nano.a(lib_a-strcpy.o)
 .debug_frame   0x000000000000619c       0x28 /home/andy/code/dbc/test/compilers/gcc-arm-none-eabi-7-2018-q2-update/bin/../lib/gcc/arm-none-eabi/7.3.1/../../../../arm-none-eabi/lib/thumb/v7e-m/fpv5/softfp/libc_nano.a(lib_a-strncmp.o)
 .debug_frame   0x00000000000061c4       0x84 /home/andy/code/dbc/test/compilers/gcc-arm-none-eabi-7-2018-q2-update/bin/../lib/gcc/arm-none-eabi/7.3.1/../../../../arm-none-eabi/lib/thumb/v7e-m/fpv5/softfp/libc_nano.a(lib_a-strtoul.o)
 .debug_frame   0x0000000000006248       0x68 /home/andy/code/dbc/test/compilers/gcc-arm-none-eabi-7-2018-q2-update/bin/../lib/gcc/arm-none-eabi/7.3.1/../../../../arm-none-eabi/lib/thumb/v7e-m/fpv5/softfp/libc_nano.a(lib_a-locale.o)
 .debug_frame   0x00000000000062b0       0x48 /home/andy/code/dbc/test/compilers/gcc-arm-none-eabi-7-2018-q2-update/bin/../lib/gcc/arm-none-eabi/7.3.1/../../../../arm-none-eabi/lib/thumb/v7e-m/fpv5/softfp/libc_nano.a(lib_a-mbtowc_r.o)
 .debug_frame   0x00000000000062f8       0x78 /home/andy/code/dbc/test/compilers/gcc-arm-none-eabi-7-2018-q2-update/bin/../lib/gcc/arm-none-eabi/7.3.1/../../../../arm-none-eabi/lib/thumb/v7e-m/fpv5/softfp/libc_nano.a(lib_a-nano-svfscanf.o)
 .debug_frame   0x0000000000006370       0x60 /home/andy/code/dbc/test/compilers/gcc-arm-none-eabi-7-2018-q2-update/bin/../lib/gcc/arm-none-eabi/7.3.1/../../../../arm-none-eabi/lib/thumb/v7e-m/fpv5/softfp/libc_nano.a(lib_a-nano-vfscanf_i.o)
 .debug_frame   0x00000000000063d0       0x2c /home/andy/code/dbc/test/compilers/gcc-arm-none-eabi-7-2018-q2-update/bin/../lib/gcc/arm-none-eabi/7.3.1/../../../../arm-none-eabi/lib/thumb/v7e-m/fpv5/softfp/libc_nano.a(lib_a-sccl.o)
 .debug_frame   0x00000000000063fc       0x84 /home/andy/code/dbc/test/compilers/gcc-arm-none-eabi-7-2018-q2-update/bin/../lib/gcc/arm-none-eabi/7.3.1/../../../../arm-none-eabi/lib/thumb/v7e-m/fpv5/softfp/libc_nano.a(lib_a-strtol.o)
 .debug_frame   0x0000000000006480       0x5c /home/andy/code/dbc/test/compilers/gcc-arm-none-eabi-7-2018-q2-update/bin/../lib/gcc/arm-none-eabi/7.3.1/../../../../arm-none-eabi/lib/thumb/v7e-m/fpv5/softfp/libc_nano.a(lib_a-ungetc.o)
 .debug_frame   0x00000000000064dc       0x3c /home/andy/code/dbc/test/compilers/gcc-arm-none-eabi-7-2018-q2-update/bin/../lib/gcc/arm-none-eabi/7.3.1/../../../../arm-none-eabi/lib/thumb/v7e-m/fpv5/softfp/libc_nano.a(lib_a-wctomb_r.o)
 .debug_frame   0x0000000000006518       0x44 /home/andy/code/dbc/test/compilers/gcc-arm-none-eabi-7-2018-q2-update/bin/../lib/gcc/arm-none-eabi/7.3.1/thumb/v7e-m/fpv5/softfp/libgcc.a(_aeabi_ldivmod.o)
 .debug_frame   0x000000000000655c       0x34 /home/andy/code/dbc/test/compilers/gcc-arm-none-eabi-7-2018-q2-update/bin/../lib/gcc/arm-none-eabi/7.3.1/thumb/v7e-m/fpv5/softfp/libgcc.a(_udivmoddi4.o)
 .debug_frame   0x0000000000006590       0x20 /home/andy/code/dbc/test/compilers/gcc-arm-none-eabi-7-2018-q2-update/bin/../lib/gcc/arm-none-eabi/7.3.1/../../../../arm-none-eabi/lib/thumb/v7e-m/fpv5/softfp/libc_nano.a(lib_a-calloc.o)
 .debug_frame   0x00000000000065b0       0x48 /home/andy/code/dbc/test/compilers/gcc-arm-none-eabi-7-2018-q2-update/bin/../lib/gcc/arm-none-eabi/7.3.1/../../../../arm-none-eabi/lib/thumb/v7e-m/fpv5/softfp/libc_nano.a(lib_a-fputc.o)
 .debug_frame   0x00000000000065f8       0x4c /home/andy/code/dbc/test/compilers/gcc-arm-none-eabi-7-2018-q2-update/bin/../lib/gcc/arm-none-eabi/7.3.1/../../../../arm-none-eabi/lib/thumb/v7e-m/fpv5/softfp/libc_nano.a(lib_a-fwrite.o)
 .debug_frame   0x0000000000006644       0x2c /home/andy/code/dbc/test/compilers/gcc-arm-none-eabi-7-2018-q2-update/bin/../lib/gcc/arm-none-eabi/7.3.1/../../../../arm-none-eabi/lib/thumb/v7e-m/fpv5/softfp/libc_nano.a(lib_a-memcmp.o)
 .debug_frame   0x0000000000006670       0x48 /home/andy/code/dbc/test/compilers/gcc-arm-none-eabi-7-2018-q2-update/bin/../lib/gcc/arm-none-eabi/7.3.1/../../../../arm-none-eabi/lib/thumb/v7e-m/fpv5/softfp/libc_nano.a(lib_a-putc.o)
 .debug_frame   0x00000000000066b8       0x3c /home/andy/code/dbc/test/compilers/gcc-arm-none-eabi-7-2018-q2-update/bin/../lib/gcc/arm-none-eabi/7.3.1/../../../../arm-none-eabi/lib/thumb/v7e-m/fpv5/softfp/libc_nano.a(lib_a-puts.o)
 .debug_frame   0x00000000000066f4       0x20 /home/andy/code/dbc/test/compilers/gcc-arm-none-eabi-7-2018-q2-update/bin/../lib/gcc/arm-none-eabi/7.3.1/../../../../arm-none-eabi/lib/thumb/v7e-m/fpv5/softfp/libc_nano.a(lib_a-strchr.o)
 .debug_frame   0x0000000000006714       0x2c /home/andy/code/dbc/test/compilers/gcc-arm-none-eabi-7-2018-q2-update/bin/../lib/gcc/arm-none-eabi/7.3.1/../../../../arm-none-eabi/lib/thumb/v7e-m/fpv5/softfp/libc_nano.a(lib_a-strcspn.o)
 .debug_frame   0x0000000000006740       0x2c /home/andy/code/dbc/test/compilers/gcc-arm-none-eabi-7-2018-q2-update/bin/../lib/gcc/arm-none-eabi/7.3.1/../../../../arm-none-eabi/lib/thumb/v7e-m/fpv5/softfp/libc_nano.a(lib_a-strncpy.o)
 .debug_frame   0x000000000000676c       0x2c /home/andy/code/dbc/test/compilers/gcc-arm-none-eabi-7-2018-q2-update/bin/../lib/gcc/arm-none-eabi/7.3.1/../../../../arm-none-eabi/lib/thumb/v7e-m/fpv5/softfp/libc_nano.a(lib_a-strspn.o)
 .debug_frame   0x0000000000006798       0x40 /home/andy/code/dbc/test/compilers/gcc-arm-none-eabi-7-2018-q2-update/bin/../lib/gcc/arm-none-eabi/7.3.1/../../../../arm-none-eabi/lib/thumb/v7e-m/fpv5/softfp/libc_nano.a(lib_a-wbuf.o)
 .debug_frame   0x00000000000067d8       0x2c /home/andy/code/dbc/test/compilers/gcc-arm-none-eabi-7-2018-q2-update/bin/../lib/gcc/arm-none-eabi/7.3.1/../../../../arm-none-eabi/lib/thumb/v7e-m/fpv5/softfp/libc_nano.a(lib_a-wsetup.o)
 .debug_frame   0x0000000000006804       0x2c /home/andy/code/dbc/test/compilers/gcc-arm-none-eabi-7-2018-q2-update/bin/../lib/gcc/arm-none-eabi/7.3.1/thumb/v7e-m/fpv5/softfp/libgcc.a(_aeabi_uldivmod.o)
 .debug_frame   0x0000000000006830       0x20 /home/andy/code/dbc/test/compilers/gcc-arm-none-eabi-7-2018-q2-update/bin/../lib/gcc/arm-none-eabi/7.3.1/thumb/v7e-m/fpv5/softfp/libgcc.a(_popcountsi2.o)
